
PU.elf:     file format elf32-avr

Sections:
Idx Name          Size      VMA       LMA       File off  Algn
  0 .data         000005cc  00800100  0000458c  00004620  2**0
                  CONTENTS, ALLOC, LOAD, DATA
  1 .text         0000458c  00000000  00000000  00000094  2**1
                  CONTENTS, ALLOC, LOAD, READONLY, CODE
  2 .bss          00000076  008006cc  008006cc  00004bec  2**0
                  ALLOC
  3 .comment      00000030  00000000  00000000  00004bec  2**0
                  CONTENTS, READONLY
  4 .note.gnu.avr.deviceinfo 00000040  00000000  00000000  00004c1c  2**2
                  CONTENTS, READONLY
  5 .debug_aranges 00000170  00000000  00000000  00004c5c  2**0
                  CONTENTS, READONLY, DEBUGGING
  6 .debug_info   0000306c  00000000  00000000  00004dcc  2**0
                  CONTENTS, READONLY, DEBUGGING
  7 .debug_abbrev 00000995  00000000  00000000  00007e38  2**0
                  CONTENTS, READONLY, DEBUGGING
  8 .debug_line   00002aba  00000000  00000000  000087cd  2**0
                  CONTENTS, READONLY, DEBUGGING
  9 .debug_frame  00000490  00000000  00000000  0000b288  2**2
                  CONTENTS, READONLY, DEBUGGING
 10 .debug_str    0000079a  00000000  00000000  0000b718  2**0
                  CONTENTS, READONLY, DEBUGGING
 11 .debug_loc    000012d7  00000000  00000000  0000beb2  2**0
                  CONTENTS, READONLY, DEBUGGING
 12 .debug_ranges 00000178  00000000  00000000  0000d189  2**0
                  CONTENTS, READONLY, DEBUGGING

Disassembly of section .text:

00000000 <__vectors>:
       0:	0c 94 87 05 	jmp	0xb0e	; 0xb0e <__ctors_end>
       4:	0c 94 a4 05 	jmp	0xb48	; 0xb48 <__bad_interrupt>
       8:	0c 94 a4 05 	jmp	0xb48	; 0xb48 <__bad_interrupt>
       c:	0c 94 a4 05 	jmp	0xb48	; 0xb48 <__bad_interrupt>
      10:	0c 94 a4 05 	jmp	0xb48	; 0xb48 <__bad_interrupt>
      14:	0c 94 a4 05 	jmp	0xb48	; 0xb48 <__bad_interrupt>
      18:	0c 94 a4 05 	jmp	0xb48	; 0xb48 <__bad_interrupt>
      1c:	0c 94 a4 05 	jmp	0xb48	; 0xb48 <__bad_interrupt>
      20:	0c 94 a4 05 	jmp	0xb48	; 0xb48 <__bad_interrupt>
      24:	0c 94 a4 05 	jmp	0xb48	; 0xb48 <__bad_interrupt>
      28:	0c 94 a4 05 	jmp	0xb48	; 0xb48 <__bad_interrupt>
      2c:	0c 94 18 13 	jmp	0x2630	; 0x2630 <__vector_11>
      30:	0c 94 a4 05 	jmp	0xb48	; 0xb48 <__bad_interrupt>
      34:	0c 94 a4 05 	jmp	0xb48	; 0xb48 <__bad_interrupt>
      38:	0c 94 a4 05 	jmp	0xb48	; 0xb48 <__bad_interrupt>
      3c:	0c 94 d9 12 	jmp	0x25b2	; 0x25b2 <__vector_15>
      40:	0c 94 a4 05 	jmp	0xb48	; 0xb48 <__bad_interrupt>
      44:	0c 94 a4 05 	jmp	0xb48	; 0xb48 <__bad_interrupt>
      48:	0c 94 b6 12 	jmp	0x256c	; 0x256c <__vector_18>
      4c:	0c 94 a4 05 	jmp	0xb48	; 0xb48 <__bad_interrupt>
      50:	0c 94 80 12 	jmp	0x2500	; 0x2500 <__vector_20>
      54:	0c 94 a4 05 	jmp	0xb48	; 0xb48 <__bad_interrupt>
      58:	0c 94 a4 05 	jmp	0xb48	; 0xb48 <__bad_interrupt>
      5c:	0c 94 a4 05 	jmp	0xb48	; 0xb48 <__bad_interrupt>
      60:	0c 94 a4 05 	jmp	0xb48	; 0xb48 <__bad_interrupt>
      64:	0c 94 a4 05 	jmp	0xb48	; 0xb48 <__bad_interrupt>
      68:	0c 94 a4 05 	jmp	0xb48	; 0xb48 <__bad_interrupt>
      6c:	0c 94 a4 05 	jmp	0xb48	; 0xb48 <__bad_interrupt>
      70:	0c 94 a4 05 	jmp	0xb48	; 0xb48 <__bad_interrupt>
      74:	0c 94 a4 05 	jmp	0xb48	; 0xb48 <__bad_interrupt>
      78:	0c 94 a4 05 	jmp	0xb48	; 0xb48 <__bad_interrupt>
      7c:	6a 0c       	add	r6, r10
      7e:	71 0c       	add	r7, r1
      80:	78 0c       	add	r7, r8
      82:	7f 0c       	add	r7, r15
      84:	86 0c       	add	r8, r6
      86:	8d 0c       	add	r8, r13
      88:	94 0c       	add	r9, r4
      8a:	9b 0c       	add	r9, r11
      8c:	a2 0c       	add	r10, r2
      8e:	a9 0c       	add	r10, r9
      90:	dc 0c       	add	r13, r12
      92:	e0 0c       	add	r14, r0
      94:	e4 0c       	add	r14, r4
      96:	e8 0c       	add	r14, r8
      98:	ec 0c       	add	r14, r12
      9a:	f7 0c       	add	r15, r7
      9c:	04 0d       	add	r16, r4
      9e:	09 0d       	add	r16, r9
      a0:	09 0d       	add	r16, r9
      a2:	cf 0c       	add	r12, r15
      a4:	19 15       	cp	r17, r9
      a6:	28 15       	cp	r18, r8
      a8:	36 15       	cp	r19, r6
      aa:	44 15       	cp	r20, r4
      ac:	53 15       	cp	r21, r3
      ae:	62 15       	cp	r22, r2
      b0:	76 15       	cp	r23, r6
      b2:	8a 15       	cp	r24, r10
      b4:	a3 15       	cp	r26, r3
      b6:	c9 15       	cp	r28, r9
      b8:	fc 15       	cp	r31, r12
      ba:	0c 16       	cp	r0, r28
      bc:	1b 16       	cp	r1, r27
      be:	2a 16       	cp	r2, r26
      c0:	38 16       	cp	r3, r24
      c2:	62 16       	cp	r6, r18
      c4:	97 16       	cp	r9, r23
      c6:	a6 16       	cp	r10, r22
      c8:	cc 16       	cp	r12, r28
      ca:	08 17       	cp	r16, r24
      cc:	31 17       	cp	r19, r17
      ce:	58 17       	cp	r21, r24
      d0:	77 17       	cp	r23, r23
      d2:	96 17       	cp	r25, r22
      d4:	b5 17       	cp	r27, r21
      d6:	d4 17       	cp	r29, r20
      d8:	f3 17       	cp	r31, r19
      da:	12 18       	sub	r1, r2
      dc:	31 18       	sub	r3, r1
      de:	50 18       	sub	r5, r0
      e0:	6f 18       	sub	r6, r15
      e2:	8e 18       	sub	r8, r14
      e4:	ad 18       	sub	r10, r13
      e6:	cc 18       	sub	r12, r12
      e8:	eb 18       	sub	r14, r11
      ea:	0a 19       	sub	r16, r10
      ec:	29 19       	sub	r18, r9
      ee:	48 19       	sub	r20, r8
      f0:	67 19       	sub	r22, r7
      f2:	86 19       	sub	r24, r6
      f4:	a5 19       	sub	r26, r5
      f6:	c4 19       	sub	r28, r4
      f8:	e3 19       	sub	r30, r3
      fa:	01 1a       	sub	r0, r17
      fc:	1d 1a       	sub	r1, r29
      fe:	39 1a       	sub	r3, r25
     100:	55 1a       	sub	r5, r21
     102:	71 1a       	sub	r7, r17
     104:	8d 1a       	sub	r8, r29
     106:	a9 1a       	sub	r10, r25
     108:	c5 1a       	sub	r12, r21
     10a:	e1 1a       	sub	r14, r17
     10c:	fd 1a       	sub	r15, r29
     10e:	19 1b       	sub	r17, r25
     110:	35 1b       	sub	r19, r21
     112:	51 1b       	sub	r21, r17
     114:	6d 1b       	sub	r22, r29
     116:	89 1b       	sub	r24, r25
     118:	a5 1b       	sub	r26, r21
     11a:	c1 1b       	sub	r28, r17
     11c:	dd 1b       	sub	r29, r29
     11e:	f9 1b       	sub	r31, r25
     120:	15 1c       	adc	r1, r5
     122:	31 1c       	adc	r3, r1
     124:	4d 1c       	adc	r4, r13
     126:	69 1c       	adc	r6, r9
     128:	85 1c       	adc	r8, r5
     12a:	a1 1c       	adc	r10, r1
     12c:	bd 1c       	adc	r11, r13
     12e:	d9 1c       	adc	r13, r9
     130:	f5 1c       	adc	r15, r5
     132:	11 1d       	adc	r17, r1
     134:	2d 1d       	adc	r18, r13
     136:	49 1d       	adc	r20, r9
     138:	65 1d       	adc	r22, r5
     13a:	81 1d       	adc	r24, r1
     13c:	9d 1d       	adc	r25, r13
     13e:	b9 1d       	adc	r27, r9
     140:	d5 1d       	adc	r29, r5
     142:	f1 1d       	adc	r31, r1
     144:	0d 1e       	adc	r0, r29
     146:	29 1e       	adc	r2, r25
     148:	45 1e       	adc	r4, r21
     14a:	61 1e       	adc	r6, r17
     14c:	7d 1e       	adc	r7, r29
     14e:	99 1e       	adc	r9, r25
     150:	cb 1e       	adc	r12, r27
     152:	e1 1e       	adc	r14, r17
     154:	f7 1e       	adc	r15, r23
     156:	0d 1f       	adc	r16, r29
     158:	23 1f       	adc	r18, r19
     15a:	f0 21       	and	r31, r0
     15c:	37 1f       	adc	r19, r23
     15e:	44 1f       	adc	r20, r20
     160:	50 1f       	adc	r21, r16
     162:	5c 1f       	adc	r21, r28
     164:	67 1f       	adc	r22, r23
     166:	7c 1f       	adc	r23, r28
     168:	12 21       	and	r17, r2
     16a:	f0 21       	and	r31, r0
     16c:	f0 21       	and	r31, r0
     16e:	f0 21       	and	r31, r0
     170:	f0 21       	and	r31, r0
     172:	f0 21       	and	r31, r0
     174:	f0 21       	and	r31, r0
     176:	f0 21       	and	r31, r0
     178:	f0 21       	and	r31, r0
     17a:	f0 21       	and	r31, r0
     17c:	f0 21       	and	r31, r0
     17e:	f0 21       	and	r31, r0
     180:	f0 21       	and	r31, r0
     182:	f0 21       	and	r31, r0
     184:	f0 21       	and	r31, r0
     186:	f0 21       	and	r31, r0
     188:	f0 21       	and	r31, r0
     18a:	6f 16       	cp	r6, r31
     18c:	7d 16       	cp	r7, r29
     18e:	8b 16       	cp	r8, r27
     190:	42 22       	and	r4, r18
     192:	46 22       	and	r4, r22
     194:	4a 22       	and	r4, r26
     196:	56 22       	and	r5, r22
     198:	5a 22       	and	r5, r26
     19a:	76 22       	and	r7, r22
     19c:	7a 22       	and	r7, r26
     19e:	7e 22       	and	r7, r30
     1a0:	fa 13       	cpse	r31, r26
     1a2:	fa 13       	cpse	r31, r26
     1a4:	82 22       	and	r8, r18
     1a6:	fa 13       	cpse	r31, r26
     1a8:	fa 13       	cpse	r31, r26
     1aa:	fa 13       	cpse	r31, r26
     1ac:	fa 13       	cpse	r31, r26
     1ae:	fa 13       	cpse	r31, r26
     1b0:	fa 13       	cpse	r31, r26
     1b2:	fa 13       	cpse	r31, r26
     1b4:	fa 13       	cpse	r31, r26
     1b6:	fa 13       	cpse	r31, r26
     1b8:	fa 13       	cpse	r31, r26
     1ba:	52 22       	and	r5, r18
     1bc:	4e 22       	and	r4, r30
     1be:	fa 13       	cpse	r31, r26
     1c0:	fa 13       	cpse	r31, r26
     1c2:	fa 13       	cpse	r31, r26
     1c4:	fa 13       	cpse	r31, r26
     1c6:	fa 13       	cpse	r31, r26
     1c8:	fa 13       	cpse	r31, r26
     1ca:	fa 13       	cpse	r31, r26
     1cc:	fa 13       	cpse	r31, r26
     1ce:	fa 13       	cpse	r31, r26
     1d0:	fa 13       	cpse	r31, r26
     1d2:	fa 13       	cpse	r31, r26
     1d4:	fa 13       	cpse	r31, r26
     1d6:	fa 13       	cpse	r31, r26
     1d8:	fa 13       	cpse	r31, r26
     1da:	fa 13       	cpse	r31, r26
     1dc:	fa 13       	cpse	r31, r26
     1de:	fa 13       	cpse	r31, r26
     1e0:	fa 13       	cpse	r31, r26
     1e2:	5e 22       	and	r5, r30
     1e4:	62 22       	and	r6, r18
     1e6:	66 22       	and	r6, r22
     1e8:	6a 22       	and	r6, r26
     1ea:	6e 22       	and	r6, r30
     1ec:	72 22       	and	r7, r18

000001ee <ROJER>:
	...
     1fa:	00 80 c0 60 30 30 18 08 0c 0c 06 06 06 02 02 03     ...`00..........
     20a:	03 03 03 03 03 03 03 03 03 03 03 03 02 02 06 06     ................
     21a:	06 0c 0c 08 18 30 30 60 c0 80 00 00 00 00 00 00     .....00`........
	...
     23e:	fc 0f 01 00 f0 10 00 00 00 00 00 00 00 00 00 00     ................
	...
     262:	00 10 f0 00 01 0f fc 00 00 00 00 00 00 00 00 00     ................
	...
     282:	0f 7e e0 80 07 fe f0 00 00 80 80 80 c0 c0 c0 c0     .~..............
     292:	c0 c0 80 00 00 00 00 00 80 c0 c0 c0 c0 c0 c0 80     ................
     2a2:	80 80 00 00 f0 fe 07 80 e0 7e 0f 00 00 00 00 00     .........~......
	...
     2ba:	00 00 00 c0 e0 30 30 60 e0 80 00 00 00 00 01 07     .....00`........
     2ca:	fe ff 03 00 0f 1f 7f ff ff ff ff ff 7f 1f 0f 00     ................
     2da:	80 00 80 00 0f 1f 7f ff ff ff ff ff 7f 3f 0f 00     .............?..
     2ea:	03 ff fe 07 01 00 00 00 00 80 e0 60 30 30 e0 c0     ...........`00..
     2fa:	00 00 00 00 70 f8 cc 87 83 c0 c0 c0 c1 83 86 0c     ....p...........
     30a:	0c 18 18 30 33 2f 78 70 f0 e0 60 e0 c0 81 00 00     ...03/xp..`.....
     31a:	00 00 fe ff 7f 00 7f ff fe 00 00 00 00 81 c0 e0     ................
     32a:	60 e0 f0 70 78 2f 33 30 18 18 0c 0c 86 83 c1 c0     `..px/30........
     33a:	c0 c0 83 87 cc f8 70 00 00 00 00 00 00 00 00 00     ......p.........
     34a:	00 01 01 03 03 06 06 04 0c 08 18 10 30 ef fe 03     ............0...
     35a:	1c c1 ff 4c f8 90 f0 20 e0 20 e0 20 f0 90 f8 4c     ...L... . . ...L
     36a:	ff c1 1c 03 fe ef 30 10 18 08 0c 04 06 06 03 03     ......0.........
     37a:	01 01 00 00 00 00 00 00 00 00 00 00 00 00 00 00     ................
     38a:	40 f0 b0 10 10 30 30 30 30 18 18 08 0c 04 86 82     @....0000.......
     39a:	c3 41 6f 38 60 c1 83 02 07 04 0f 09 0f 09 0f 09     .Ao8`...........
     3aa:	0f 04 07 02 83 c1 60 38 1f 31 23 62 46 c4 8c 88     ......`8.1#bF...
     3ba:	18 18 30 30 30 30 10 10 30 70 c0 80 00 00 00 00     ..0000..0p......
     3ca:	00 00 00 00 00 01 03 07 7e c0 c0 e0 70 3c 0e 06     ........~...p<..
     3da:	03 03 01 01 00 00 00 00 00 00 01 01 03 03 02 06     ................
     3ea:	06 06 06 06 02 03 03 01 01 00 00 00 00 00 00 00     ................
     3fa:	00 00 01 01 03 03 06 0e 3c 70 e0 c0 c6 7f 03 01     ........<p......
     40a:	00 00 00 00                                         ....

0000040e <LOGO>:
     40e:	07 1d 27 42 82 04 08 10 20 40 80 40 20 20 d8 24     ..'B.... @.@  .$
     41e:	24 98 80 80 80 80 80 c0 40 40 40 40 40 40 40 40     $.......@@@@@@@@
     42e:	40 40 40 40 40 40 40 40 c0 80 80 80 80 80 98 24     @@@@@@@@.......$
     43e:	24 d8 20 20 40 80 40 20 10 08 04 82 42 27 1d 07     $.  @.@ ....B'..
     44e:	00 00 80 40 40 b1 4a 44 22 31 48 8c 12 a3 44 28     ...@@.JD"1H...D(
     45e:	9c 47 30 0e 02 02 02 02 02 01 01 01 01 01 01 01     .G0.............
     46e:	01 01 01 01 01 01 01 02 02 02 02 02 0e 30 47 9c     .............0G.
     47e:	28 44 a3 12 8c 48 31 22 44 4a b1 40 40 80 00 00     (D...H1"DJ.@@...
     48e:	00 00 01 02 02 01 00 3e e2 0a fb 09 05 84 e2 31     .......>.......1
     49e:	98 c8 6c 24 24 6c c8 98 30 e0 80 80 80 80 80 80     ..l$$l..0.......
     4ae:	80 80 80 80 80 80 80 80 80 80 80 80 80 80 80 80     ................
     4be:	81 82 84 05 09 fb 0a e2 3e 00 01 02 02 01 00 00     ........>.......
	...
     4d6:	0f f8 03 7c 80 07 1c 30 67 4c d8 90 90 d8 4c 67     ...|...0gL....Lg
     4e6:	30 1c 07 04 04 04 04 04 04 04 04 04 04 04 04 fc     0...............
     4f6:	84 84 e4 24 24 e4 84 84 fc 04 07 80 7c 03 f8 0f     ...$$.......|...
	...
     516:	00 01 1f f0 07 78 80 00 00 00 00 00 00 c0 c0 c0     .....x..........
     526:	c0 c0 80 00 00 f0 f0 30 30 f0 e0 00 00 c0 c0 c0     .......00.......
     536:	c0 c0 c0 00 00 00 00 00 00 80 78 07 f0 1f 01 00     ..........x.....
	...
     556:	00 00 00 81 47 3c 71 c6 18 60 80 00 00 ff ff 0c     ....G<q..`......
     566:	0c 0f 07 00 00 3f 3f 33 33 3f 1d 00 00 ff ff cc     .....??33?......
     576:	cc fc 78 00 00 80 60 18 c6 71 3c 47 81 00 00 00     ..x...`..q<G....
	...
     592:	00 00 80 60 18 46 21 90 88 44 42 21 17 0c 19 32     ...`.F!..DB!...2
     5a2:	64 c8 90 20 40 80 00 00 00 00 00 00 00 00 00 00     d.. @...........
     5b2:	00 00 80 40 20 90 c8 64 32 19 0c 17 21 42 44 88     ...@ ..d2...!BD.
     5c2:	90 21 46 18 60 80 00 00 00 00 00 00 00 00 00 00     .!F.`...........
     5d2:	00 00 03 02 02 01 01 00 00 00 00 00 00 00 00 00     ................
     5e2:	00 00 01 03 06 0c 09 1a 12 34 24 68 68 24 34 12     .........4$hh$4.
     5f2:	1a 09 0c 06 03 01 00 00 00 00 00 00 00 00 00 00     ................
     602:	00 01 01 02 02 03 00 00 00 00 00 00                 ............

0000060e <sym>:
	...
     6b2:	00 00 00 4f 00 00 00 07 00 07 00 24 7e 24 7e 24     ...O.......$~$~$
     6c2:	24 2a 7f 2a 12 46 26 10 c8 c4 04 02 01 02 04 00     $*.*.F&.........
     6d2:	05 03 00 00 00 1c 22 41 00 00 41 22 1c 00 14 08     ......"A..A"....
     6e2:	3e 08 14 30 30 fc fc 30 00 50 30 00 00 08 08 08     >..00..0.P0.....
     6f2:	08 08 00 60 60 00 00 20 10 08 04 02 3e 51 49 45     ...``.. ....>QIE
     702:	3e 00 42 7f 40 00 42 61 51 49 46 21 41 45 4b 31     >.B.@.BaQIF!AEK1
     712:	18 14 12 7f 10 27 45 45 45 39 3c 4a 49 49 30 01     .....'EEE9<JII0.
     722:	71 09 05 03 36 49 49 49 36 06 49 49 29 1e 00 36     q...6III6.II)..6
     732:	36 00 00 00 56 36 00 00 08 14 22 41 00 14 14 14     6...V6...."A....
     742:	14 14 00 41 22 14 08 02 01 51 09 06 32 49 71 41     ...A"....Q..2IqA
     752:	3e 7e 11 11 11 7e 7f 49 49 49 36 3e 41 41 41 22     >~...~.III6>AAA"
     762:	7f 41 41 22 1c 7f 49 49 49 41 7f 09 09 09 01 3e     .AA"..IIIA.....>
     772:	41 49 49 3a 7f 08 08 08 7f 00 41 7f 41 00 20 40     AII:......A.A. @
     782:	41 3f 01 7f 08 14 22 41 7f 40 40 40 40 7f 02 0c     A?...."A.@@@@...
     792:	02 7f 7f 04 08 10 7f 3e 41 41 41 3e 7f 09 09 09     .......>AAA>....
     7a2:	06 3e 41 51 21 5e 7f 09 19 29 46 46 49 49 49 31     .>AQ!^...)FFIII1
     7b2:	01 01 7f 01 01 3f 40 40 40 3f 1f 20 40 20 1f 3f     .....?@@@?. @ .?
     7c2:	40 70 40 3f 63 14 08 14 63 07 08 70 08 07 61 51     @p@?c...c..p..aQ
     7d2:	49 45 43 00 7f 41 41 00 02 04 08 10 20 00 41 41     IEC..AA..... .AA
     7e2:	7f 00 04 02 01 02 04 40 40 40 40 40 00 01 02 04     .......@@@@@....
     7f2:	00 20 54 54 54 78 7f 48 44 44 38 38 44 44 44 20     . TTTx.HDD88DDD 
     802:	38 44 44 48 7f 38 54 54 54 18 08 7e 09 01 02 0c     8DDH.8TTT..~....
     812:	52 52 52 3e 7f 08 04 04 78 00 44 7d 40 00 20 40     RRR>....x.D}@. @
     822:	44 3d 00 7f 10 28 44 00 00 41 7f 40 00 7c 04 18     D=...(D..A.@.|..
     832:	04 78 7c 08 04 04 78 38 44 44 44 38 7c 14 14 14     .x|...x8DDD8|...
     842:	08 08 14 14 18 7c 7c 08 04 04 08 48 54 54 54 20     .....||....HTTT 
     852:	04 3f 44 40 20 3c 40 40 20 7c 1c 20 40 20 1c 3c     .?D@ <@@ |. @ .<
     862:	40 30 40 3c 44 28 10 28 44 0c 50 50 50 3c 44 64     @0@<D(.(D.PPP<Dd
     872:	54 4c 44 00 08 36 41 00 00 00 7f 00 00 00 41 36     TLD..6A.......A6
     882:	08 00 02 01 02 02 01 7e 79 79 79 7e 00 00 00 00     .......~yyy~....
	...
     9ce:	7e 11 11 11 7e 7f 49 49 49 33 7f 49 49 49 36 7f     ~...~.III3.III6.
     9de:	01 01 01 03 e0 51 4f 41 ff 7f 49 49 49 41 77 08     .....QOA..IIIAw.
     9ee:	7f 08 77 41 49 49 49 36 7f 10 08 04 7f 7c 21 12     ..wAIII6.....|!.
     9fe:	09 7c 7f 08 14 22 41 20 41 3f 01 7f 7f 02 0c 02     .|..."A A?......
     a0e:	7f 7f 08 08 08 7f 3e 41 41 41 3e 7f 01 01 01 7f     ......>AAA>.....
     a1e:	7f 09 09 09 06 3e 41 41 41 22 01 01 7f 01 01 47     .....>AAA".....G
     a2e:	28 10 08 07 1c 22 7f 22 1c 63 14 08 14 63 7f 40     (....".".c...c.@
     a3e:	40 40 ff 07 08 08 08 7f 7f 40 7f 40 7f 7f 40 7f     @@.......@.@..@.
     a4e:	40 ff 01 7f 48 48 30 7f 48 30 00 7f 00 7f 48 48     @...HH0.H0....HH
     a5e:	30 22 41 49 49 3e 7f 08 3e 41 3e 46 29 19 09 7f     0"AII>..>A>F)...
     a6e:	20 54 54 54 78 3c 4a 4a 49 31 7c 54 54 28 00 7c      TTTx<JJI1|TT(.|
     a7e:	04 04 04 0c e0 54 4c 44 fc 38 54 54 54 18 6c 10     .....TLD.8TTT.l.
     a8e:	7c 10 6c 44 44 54 54 28 7c 20 10 08 7c 7c 41 22     |.lDDTT(| ..||A"
     a9e:	11 7c 7c 10 28 44 00 20 44 3c 04 7c 7c 08 10 08     .||.(D. D<.||...
     aae:	7c 7c 10 10 10 7c 38 44 44 44 38 7c 04 04 04 7c     ||...|8DDD8|...|
     abe:	7c 14 14 14 08 38 44 44 44 20 04 04 7c 04 04 0c     |....8DDD ..|...
     ace:	50 50 50 3c 30 48 fc 48 30 44 28 10 28 44 7c 40     PPP<0H.H0D(.(D|@
     ade:	40 40 fc 0c 10 10 10 7c 7c 40 7c 40 7c 7c 40 7c     @@.....||@|@||@|
     aee:	40 fc 04 7c 50 50 20 7c 50 50 20 7c 7c 50 50 50     @..|PP |PP ||PPP
     afe:	20 28 44 54 54 38 7c 10 38 44 38 08 54 34 14 7c      (DTT8|.8D8.T4.|

00000b0e <__ctors_end>:
     b0e:	11 24       	eor	r1, r1
     b10:	1f be       	out	0x3f, r1	; 63
     b12:	cf ef       	ldi	r28, 0xFF	; 255
     b14:	d8 e0       	ldi	r29, 0x08	; 8
     b16:	de bf       	out	0x3e, r29	; 62
     b18:	cd bf       	out	0x3d, r28	; 61

00000b1a <__do_copy_data>:
     b1a:	16 e0       	ldi	r17, 0x06	; 6
     b1c:	a0 e0       	ldi	r26, 0x00	; 0
     b1e:	b1 e0       	ldi	r27, 0x01	; 1
     b20:	ec e8       	ldi	r30, 0x8C	; 140
     b22:	f5 e4       	ldi	r31, 0x45	; 69
     b24:	02 c0       	rjmp	.+4      	; 0xb2a <__do_copy_data+0x10>
     b26:	05 90       	lpm	r0, Z+
     b28:	0d 92       	st	X+, r0
     b2a:	ac 3c       	cpi	r26, 0xCC	; 204
     b2c:	b1 07       	cpc	r27, r17
     b2e:	d9 f7       	brne	.-10     	; 0xb26 <__do_copy_data+0xc>

00000b30 <__do_clear_bss>:
     b30:	27 e0       	ldi	r18, 0x07	; 7
     b32:	ac ec       	ldi	r26, 0xCC	; 204
     b34:	b6 e0       	ldi	r27, 0x06	; 6
     b36:	01 c0       	rjmp	.+2      	; 0xb3a <.do_clear_bss_start>

00000b38 <.do_clear_bss_loop>:
     b38:	1d 92       	st	X+, r1

00000b3a <.do_clear_bss_start>:
     b3a:	a2 34       	cpi	r26, 0x42	; 66
     b3c:	b2 07       	cpc	r27, r18
     b3e:	e1 f7       	brne	.-8      	; 0xb38 <.do_clear_bss_loop>
     b40:	0e 94 30 13 	call	0x2660	; 0x2660 <main>
     b44:	0c 94 c4 22 	jmp	0x4588	; 0x4588 <_exit>

00000b48 <__bad_interrupt>:
     b48:	0c 94 00 00 	jmp	0	; 0x0 <__vectors>

00000b4c <USART_init>:
	return 15;
}

void beep(uint8_t onoff){
	if(onoff)PORTC|=(1<<PORTC0);
	else PORTC&=~(1<<PORTC0);
     b4c:	81 e2       	ldi	r24, 0x21	; 33
     b4e:	80 93 c4 00 	sts	0x00C4, r24	; 0x8000c4 <__TEXT_REGION_LENGTH__+0x7e00c4>
     b52:	82 e0       	ldi	r24, 0x02	; 2
     b54:	80 93 c0 00 	sts	0x00C0, r24	; 0x8000c0 <__TEXT_REGION_LENGTH__+0x7e00c0>
     b58:	88 e9       	ldi	r24, 0x98	; 152
     b5a:	80 93 c1 00 	sts	0x00C1, r24	; 0x8000c1 <__TEXT_REGION_LENGTH__+0x7e00c1>
     b5e:	86 e0       	ldi	r24, 0x06	; 6
     b60:	80 93 c2 00 	sts	0x00C2, r24	; 0x8000c2 <__TEXT_REGION_LENGTH__+0x7e00c2>
     b64:	08 95       	ret

00000b66 <lcd_reset>:
     b66:	88 23       	and	r24, r24
     b68:	11 f0       	breq	.+4      	; 0xb6e <lcd_reset+0x8>
     b6a:	42 9a       	sbi	0x08, 2	; 8
     b6c:	08 95       	ret
     b6e:	42 98       	cbi	0x08, 2	; 8
     b70:	08 95       	ret

00000b72 <lcd_e>:
     b72:	88 23       	and	r24, r24
     b74:	11 f0       	breq	.+4      	; 0xb7a <lcd_e+0x8>
     b76:	45 9a       	sbi	0x08, 5	; 8
     b78:	08 95       	ret
     b7a:	45 98       	cbi	0x08, 5	; 8
     b7c:	08 95       	ret

00000b7e <lcd_di>:
     b7e:	88 23       	and	r24, r24
     b80:	11 f0       	breq	.+4      	; 0xb86 <lcd_di+0x8>
     b82:	46 9a       	sbi	0x08, 6	; 8
     b84:	08 95       	ret
     b86:	46 98       	cbi	0x08, 6	; 8
     b88:	08 95       	ret

00000b8a <lcd_cs1>:
     b8a:	88 23       	and	r24, r24
     b8c:	11 f0       	breq	.+4      	; 0xb92 <lcd_cs1+0x8>
     b8e:	44 9a       	sbi	0x08, 4	; 8
     b90:	08 95       	ret
     b92:	44 98       	cbi	0x08, 4	; 8
     b94:	08 95       	ret

00000b96 <lcd_cs2>:
     b96:	88 23       	and	r24, r24
     b98:	11 f0       	breq	.+4      	; 0xb9e <lcd_cs2+0x8>
     b9a:	43 9a       	sbi	0x08, 3	; 8
     b9c:	08 95       	ret
     b9e:	43 98       	cbi	0x08, 3	; 8
     ba0:	08 95       	ret

00000ba2 <lcd_LED>:
     ba2:	88 23       	and	r24, r24
     ba4:	39 f0       	breq	.+14     	; 0xbb4 <lcd_LED+0x12>
     ba6:	41 9a       	sbi	0x08, 1	; 8
     ba8:	80 ef       	ldi	r24, 0xF0	; 240
     baa:	80 93 cd 06 	sts	0x06CD, r24	; 0x8006cd <LCD_led_timer>
     bae:	10 92 cc 06 	sts	0x06CC, r1	; 0x8006cc <__data_end>
     bb2:	08 95       	ret
     bb4:	41 98       	cbi	0x08, 1	; 8
     bb6:	08 95       	ret

00000bb8 <WriteCom>:
     bb8:	cf 93       	push	r28
     bba:	c6 2f       	mov	r28, r22
     bbc:	82 b9       	out	0x02, r24	; 2
     bbe:	80 e0       	ldi	r24, 0x00	; 0
     bc0:	0e 94 bf 05 	call	0xb7e	; 0xb7e <lcd_di>
     bc4:	8c 2f       	mov	r24, r28
     bc6:	81 70       	andi	r24, 0x01	; 1
     bc8:	0e 94 c5 05 	call	0xb8a	; 0xb8a <lcd_cs1>
     bcc:	8c 2f       	mov	r24, r28
     bce:	86 95       	lsr	r24
     bd0:	0e 94 cb 05 	call	0xb96	; 0xb96 <lcd_cs2>
     bd4:	82 e0       	ldi	r24, 0x02	; 2
     bd6:	8a 95       	dec	r24
     bd8:	f1 f7       	brne	.-4      	; 0xbd6 <WriteCom+0x1e>
     bda:	81 e0       	ldi	r24, 0x01	; 1
     bdc:	0e 94 b9 05 	call	0xb72	; 0xb72 <lcd_e>
     be0:	87 e0       	ldi	r24, 0x07	; 7
     be2:	8a 95       	dec	r24
     be4:	f1 f7       	brne	.-4      	; 0xbe2 <WriteCom+0x2a>
     be6:	80 e0       	ldi	r24, 0x00	; 0
     be8:	0e 94 b9 05 	call	0xb72	; 0xb72 <lcd_e>
     bec:	cf 91       	pop	r28
     bee:	08 95       	ret

00000bf0 <WriteData>:
     bf0:	cf 93       	push	r28
     bf2:	c6 2f       	mov	r28, r22
     bf4:	82 b9       	out	0x02, r24	; 2
     bf6:	81 e0       	ldi	r24, 0x01	; 1
     bf8:	0e 94 bf 05 	call	0xb7e	; 0xb7e <lcd_di>
     bfc:	8c 2f       	mov	r24, r28
     bfe:	81 70       	andi	r24, 0x01	; 1
     c00:	0e 94 c5 05 	call	0xb8a	; 0xb8a <lcd_cs1>
     c04:	8c 2f       	mov	r24, r28
     c06:	86 95       	lsr	r24
     c08:	0e 94 cb 05 	call	0xb96	; 0xb96 <lcd_cs2>
     c0c:	82 e0       	ldi	r24, 0x02	; 2
     c0e:	8a 95       	dec	r24
     c10:	f1 f7       	brne	.-4      	; 0xc0e <WriteData+0x1e>
     c12:	81 e0       	ldi	r24, 0x01	; 1
     c14:	0e 94 b9 05 	call	0xb72	; 0xb72 <lcd_e>
     c18:	87 e0       	ldi	r24, 0x07	; 7
     c1a:	8a 95       	dec	r24
     c1c:	f1 f7       	brne	.-4      	; 0xc1a <WriteData+0x2a>
     c1e:	80 e0       	ldi	r24, 0x00	; 0
     c20:	0e 94 b9 05 	call	0xb72	; 0xb72 <lcd_e>
     c24:	cf 91       	pop	r28
     c26:	08 95       	ret

00000c28 <WriteXY>:
     c28:	cf 93       	push	r28
     c2a:	df 93       	push	r29
     c2c:	d8 2f       	mov	r29, r24
     c2e:	86 2f       	mov	r24, r22
     c30:	c4 2f       	mov	r28, r20
     c32:	64 2f       	mov	r22, r20
     c34:	88 54       	subi	r24, 0x48	; 72
     c36:	0e 94 dc 05 	call	0xbb8	; 0xbb8 <WriteCom>
     c3a:	6c 2f       	mov	r22, r28
     c3c:	80 e4       	ldi	r24, 0x40	; 64
     c3e:	8d 0f       	add	r24, r29
     c40:	0e 94 dc 05 	call	0xbb8	; 0xbb8 <WriteCom>
     c44:	df 91       	pop	r29
     c46:	cf 91       	pop	r28
     c48:	08 95       	ret

00000c4a <lcd_init>:
     c4a:	81 e0       	ldi	r24, 0x01	; 1
     c4c:	0e 94 b3 05 	call	0xb66	; 0xb66 <lcd_reset>
     c50:	63 e0       	ldi	r22, 0x03	; 3
     c52:	8f e3       	ldi	r24, 0x3F	; 63
     c54:	0e 94 dc 05 	call	0xbb8	; 0xbb8 <WriteCom>
     c58:	63 e0       	ldi	r22, 0x03	; 3
     c5a:	80 ec       	ldi	r24, 0xC0	; 192
     c5c:	0e 94 dc 05 	call	0xbb8	; 0xbb8 <WriteCom>
     c60:	43 e0       	ldi	r20, 0x03	; 3
     c62:	60 e0       	ldi	r22, 0x00	; 0
     c64:	80 e0       	ldi	r24, 0x00	; 0
     c66:	0e 94 14 06 	call	0xc28	; 0xc28 <WriteXY>
     c6a:	08 95       	ret

00000c6c <lcd_clean>:
     c6c:	cf 93       	push	r28
     c6e:	df 93       	push	r29
     c70:	d0 e0       	ldi	r29, 0x00	; 0
     c72:	0f c0       	rjmp	.+30     	; 0xc92 <lcd_clean+0x26>
     c74:	43 e0       	ldi	r20, 0x03	; 3
     c76:	6d 2f       	mov	r22, r29
     c78:	8c 2f       	mov	r24, r28
     c7a:	0e 94 14 06 	call	0xc28	; 0xc28 <WriteXY>
     c7e:	63 e0       	ldi	r22, 0x03	; 3
     c80:	80 e0       	ldi	r24, 0x00	; 0
     c82:	0e 94 f8 05 	call	0xbf0	; 0xbf0 <WriteData>
     c86:	cf 5f       	subi	r28, 0xFF	; 255
     c88:	c0 34       	cpi	r28, 0x40	; 64
     c8a:	a1 f7       	brne	.-24     	; 0xc74 <lcd_clean+0x8>
     c8c:	df 5f       	subi	r29, 0xFF	; 255
     c8e:	d8 30       	cpi	r29, 0x08	; 8
     c90:	11 f0       	breq	.+4      	; 0xc96 <lcd_clean+0x2a>
     c92:	c0 e0       	ldi	r28, 0x00	; 0
     c94:	ef cf       	rjmp	.-34     	; 0xc74 <lcd_clean+0x8>
     c96:	df 91       	pop	r29
     c98:	cf 91       	pop	r28
     c9a:	08 95       	ret

00000c9c <lcd_set_ch>:
     c9c:	ef 92       	push	r14
     c9e:	ff 92       	push	r15
     ca0:	0f 93       	push	r16
     ca2:	1f 93       	push	r17
     ca4:	cf 93       	push	r28
     ca6:	df 93       	push	r29
     ca8:	c8 2f       	mov	r28, r24
     caa:	16 2f       	mov	r17, r22
     cac:	e4 2e       	mov	r14, r20
     cae:	60 34       	cpi	r22, 0x40	; 64
     cb0:	40 f4       	brcc	.+16     	; 0xcc2 <lcd_set_ch+0x26>
     cb2:	41 e0       	ldi	r20, 0x01	; 1
     cb4:	6e 2d       	mov	r22, r14
     cb6:	81 2f       	mov	r24, r17
     cb8:	0e 94 14 06 	call	0xc28	; 0xc28 <WriteXY>
     cbc:	ff 24       	eor	r15, r15
     cbe:	f3 94       	inc	r15
     cc0:	24 c0       	rjmp	.+72     	; 0xd0a <lcd_set_ch+0x6e>
     cc2:	42 e0       	ldi	r20, 0x02	; 2
     cc4:	6e 2d       	mov	r22, r14
     cc6:	80 ec       	ldi	r24, 0xC0	; 192
     cc8:	81 0f       	add	r24, r17
     cca:	0e 94 14 06 	call	0xc28	; 0xc28 <WriteXY>
     cce:	68 94       	set
     cd0:	ff 24       	eor	r15, r15
     cd2:	f1 f8       	bld	r15, 1
     cd4:	1a c0       	rjmp	.+52     	; 0xd0a <lcd_set_ch+0x6e>
     cd6:	fe 01       	movw	r30, r28
     cd8:	84 91       	lpm	r24, Z
     cda:	6f 2d       	mov	r22, r15
     cdc:	0e 94 f8 05 	call	0xbf0	; 0xbf0 <WriteData>
     ce0:	1f 5f       	subi	r17, 0xFF	; 255
     ce2:	10 34       	cpi	r17, 0x40	; 64
     ce4:	49 f4       	brne	.+18     	; 0xcf8 <lcd_set_ch+0x5c>
     ce6:	42 e0       	ldi	r20, 0x02	; 2
     ce8:	6e 2d       	mov	r22, r14
     cea:	80 e0       	ldi	r24, 0x00	; 0
     cec:	0e 94 14 06 	call	0xc28	; 0xc28 <WriteXY>
     cf0:	68 94       	set
     cf2:	ff 24       	eor	r15, r15
     cf4:	f1 f8       	bld	r15, 1
     cf6:	10 e0       	ldi	r17, 0x00	; 0
     cf8:	01 50       	subi	r16, 0x01	; 1
     cfa:	21 96       	adiw	r28, 0x01	; 1
     cfc:	01 11       	cpse	r16, r1
     cfe:	eb cf       	rjmp	.-42     	; 0xcd6 <lcd_set_ch+0x3a>
     d00:	6f 2d       	mov	r22, r15
     d02:	80 e0       	ldi	r24, 0x00	; 0
     d04:	0e 94 f8 05 	call	0xbf0	; 0xbf0 <WriteData>
     d08:	0d c0       	rjmp	.+26     	; 0xd24 <lcd_set_ch+0x88>
     d0a:	8c 2f       	mov	r24, r28
     d0c:	90 e0       	ldi	r25, 0x00	; 0
     d0e:	ec 01       	movw	r28, r24
     d10:	cc 0f       	add	r28, r28
     d12:	dd 1f       	adc	r29, r29
     d14:	cc 0f       	add	r28, r28
     d16:	dd 1f       	adc	r29, r29
     d18:	c8 0f       	add	r28, r24
     d1a:	d9 1f       	adc	r29, r25
     d1c:	c2 5f       	subi	r28, 0xF2	; 242
     d1e:	d9 4f       	sbci	r29, 0xF9	; 249
     d20:	05 e0       	ldi	r16, 0x05	; 5
     d22:	d9 cf       	rjmp	.-78     	; 0xcd6 <lcd_set_ch+0x3a>
     d24:	df 91       	pop	r29
     d26:	cf 91       	pop	r28
     d28:	1f 91       	pop	r17
     d2a:	0f 91       	pop	r16
     d2c:	ff 90       	pop	r15
     d2e:	ef 90       	pop	r14
     d30:	08 95       	ret

00000d32 <lcd_set_string>:
     d32:	0f 93       	push	r16
     d34:	1f 93       	push	r17
     d36:	cf 93       	push	r28
     d38:	df 93       	push	r29
     d3a:	fc 01       	movw	r30, r24
     d3c:	c6 2f       	mov	r28, r22
     d3e:	d4 2f       	mov	r29, r20
     d40:	80 81       	ld	r24, Z
     d42:	88 23       	and	r24, r24
     d44:	69 f0       	breq	.+26     	; 0xd60 <lcd_set_string+0x2e>
     d46:	8f 01       	movw	r16, r30
     d48:	0f 5f       	subi	r16, 0xFF	; 255
     d4a:	1f 4f       	sbci	r17, 0xFF	; 255
     d4c:	4d 2f       	mov	r20, r29
     d4e:	6c 2f       	mov	r22, r28
     d50:	0e 94 4e 06 	call	0xc9c	; 0xc9c <lcd_set_ch>
     d54:	ca 5f       	subi	r28, 0xFA	; 250
     d56:	f8 01       	movw	r30, r16
     d58:	81 91       	ld	r24, Z+
     d5a:	8f 01       	movw	r16, r30
     d5c:	81 11       	cpse	r24, r1
     d5e:	f6 cf       	rjmp	.-20     	; 0xd4c <lcd_set_string+0x1a>
     d60:	df 91       	pop	r29
     d62:	cf 91       	pop	r28
     d64:	1f 91       	pop	r17
     d66:	0f 91       	pop	r16
     d68:	08 95       	ret

00000d6a <lcd_set_big_digit>:
     d6a:	df 92       	push	r13
     d6c:	ef 92       	push	r14
     d6e:	ff 92       	push	r15
     d70:	0f 93       	push	r16
     d72:	1f 93       	push	r17
     d74:	cf 93       	push	r28
     d76:	df 93       	push	r29
     d78:	61 30       	cpi	r22, 0x01	; 1
     d7a:	29 f0       	breq	.+10     	; 0xd86 <lcd_set_big_digit+0x1c>
     d7c:	d1 2c       	mov	r13, r1
     d7e:	68 94       	set
     d80:	ff 24       	eor	r15, r15
     d82:	f1 f8       	bld	r15, 1
     d84:	06 c0       	rjmp	.+12     	; 0xd92 <lcd_set_big_digit+0x28>
     d86:	0f 2e       	mov	r0, r31
     d88:	ff e2       	ldi	r31, 0x2F	; 47
     d8a:	df 2e       	mov	r13, r31
     d8c:	f0 2d       	mov	r31, r0
     d8e:	ff 24       	eor	r15, r15
     d90:	f3 94       	inc	r15
     d92:	9d e2       	ldi	r25, 0x2D	; 45
     d94:	89 9f       	mul	r24, r25
     d96:	e0 01       	movw	r28, r0
     d98:	11 24       	eor	r1, r1
     d9a:	c7 5f       	subi	r28, 0xF7	; 247
     d9c:	da 4f       	sbci	r29, 0xFA	; 250
     d9e:	68 94       	set
     da0:	ee 24       	eor	r14, r14
     da2:	e1 f8       	bld	r14, 1
     da4:	4f 2d       	mov	r20, r15
     da6:	6e 2d       	mov	r22, r14
     da8:	8d 2d       	mov	r24, r13
     daa:	0e 94 14 06 	call	0xc28	; 0xc28 <WriteXY>
     dae:	8e 01       	movw	r16, r28
     db0:	01 5f       	subi	r16, 0xF1	; 241
     db2:	1f 4f       	sbci	r17, 0xFF	; 255
     db4:	6f 2d       	mov	r22, r15
     db6:	89 91       	ld	r24, Y+
     db8:	0e 94 f8 05 	call	0xbf0	; 0xbf0 <WriteData>
     dbc:	c0 17       	cp	r28, r16
     dbe:	d1 07       	cpc	r29, r17
     dc0:	c9 f7       	brne	.-14     	; 0xdb4 <lcd_set_big_digit+0x4a>
     dc2:	e3 94       	inc	r14
     dc4:	e8 01       	movw	r28, r16
     dc6:	85 e0       	ldi	r24, 0x05	; 5
     dc8:	e8 12       	cpse	r14, r24
     dca:	ec cf       	rjmp	.-40     	; 0xda4 <lcd_set_big_digit+0x3a>
     dcc:	df 91       	pop	r29
     dce:	cf 91       	pop	r28
     dd0:	1f 91       	pop	r17
     dd2:	0f 91       	pop	r16
     dd4:	ff 90       	pop	r15
     dd6:	ef 90       	pop	r14
     dd8:	df 90       	pop	r13
     dda:	08 95       	ret

00000ddc <scan_buttons>:
     ddc:	2a 98       	cbi	0x05, 2	; 5
     dde:	82 e0       	ldi	r24, 0x02	; 2
     de0:	8a 95       	dec	r24
     de2:	f1 f7       	brne	.-4      	; 0xde0 <scan_buttons+0x4>
     de4:	83 b1       	in	r24, 0x03	; 3
     de6:	83 76       	andi	r24, 0x63	; 99
     de8:	83 36       	cpi	r24, 0x63	; 99
     dea:	89 f0       	breq	.+34     	; 0xe0e <scan_buttons+0x32>
     dec:	83 34       	cpi	r24, 0x43	; 67
     dee:	69 f0       	breq	.+26     	; 0xe0a <scan_buttons+0x2e>
     df0:	18 f4       	brcc	.+6      	; 0xdf8 <scan_buttons+0x1c>
     df2:	83 32       	cpi	r24, 0x23	; 35
     df4:	41 f0       	breq	.+16     	; 0xe06 <scan_buttons+0x2a>
     df6:	0b c0       	rjmp	.+22     	; 0xe0e <scan_buttons+0x32>
     df8:	81 36       	cpi	r24, 0x61	; 97
     dfa:	09 f4       	brne	.+2      	; 0xdfe <scan_buttons+0x22>
     dfc:	3c c0       	rjmp	.+120    	; 0xe76 <scan_buttons+0x9a>
     dfe:	82 36       	cpi	r24, 0x62	; 98
     e00:	31 f4       	brne	.+12     	; 0xe0e <scan_buttons+0x32>
     e02:	84 e0       	ldi	r24, 0x04	; 4
     e04:	08 95       	ret
     e06:	87 e0       	ldi	r24, 0x07	; 7
     e08:	08 95       	ret
     e0a:	8a e0       	ldi	r24, 0x0A	; 10
     e0c:	08 95       	ret
     e0e:	2a 9a       	sbi	0x05, 2	; 5
     e10:	2b 98       	cbi	0x05, 3	; 5
     e12:	82 e0       	ldi	r24, 0x02	; 2
     e14:	8a 95       	dec	r24
     e16:	f1 f7       	brne	.-4      	; 0xe14 <scan_buttons+0x38>
     e18:	83 b1       	in	r24, 0x03	; 3
     e1a:	83 76       	andi	r24, 0x63	; 99
     e1c:	83 36       	cpi	r24, 0x63	; 99
     e1e:	81 f0       	breq	.+32     	; 0xe40 <scan_buttons+0x64>
     e20:	83 34       	cpi	r24, 0x43	; 67
     e22:	61 f0       	breq	.+24     	; 0xe3c <scan_buttons+0x60>
     e24:	18 f4       	brcc	.+6      	; 0xe2c <scan_buttons+0x50>
     e26:	83 32       	cpi	r24, 0x23	; 35
     e28:	39 f0       	breq	.+14     	; 0xe38 <scan_buttons+0x5c>
     e2a:	0a c0       	rjmp	.+20     	; 0xe40 <scan_buttons+0x64>
     e2c:	81 36       	cpi	r24, 0x61	; 97
     e2e:	29 f1       	breq	.+74     	; 0xe7a <scan_buttons+0x9e>
     e30:	82 36       	cpi	r24, 0x62	; 98
     e32:	31 f4       	brne	.+12     	; 0xe40 <scan_buttons+0x64>
     e34:	85 e0       	ldi	r24, 0x05	; 5
     e36:	08 95       	ret
     e38:	88 e0       	ldi	r24, 0x08	; 8
     e3a:	08 95       	ret
     e3c:	80 e0       	ldi	r24, 0x00	; 0
     e3e:	08 95       	ret
     e40:	2b 9a       	sbi	0x05, 3	; 5
     e42:	2c 98       	cbi	0x05, 4	; 5
     e44:	82 e0       	ldi	r24, 0x02	; 2
     e46:	8a 95       	dec	r24
     e48:	f1 f7       	brne	.-4      	; 0xe46 <scan_buttons+0x6a>
     e4a:	83 b1       	in	r24, 0x03	; 3
     e4c:	83 76       	andi	r24, 0x63	; 99
     e4e:	83 36       	cpi	r24, 0x63	; 99
     e50:	b1 f0       	breq	.+44     	; 0xe7e <scan_buttons+0xa2>
     e52:	83 34       	cpi	r24, 0x43	; 67
     e54:	71 f0       	breq	.+28     	; 0xe72 <scan_buttons+0x96>
     e56:	18 f4       	brcc	.+6      	; 0xe5e <scan_buttons+0x82>
     e58:	83 32       	cpi	r24, 0x23	; 35
     e5a:	49 f0       	breq	.+18     	; 0xe6e <scan_buttons+0x92>
     e5c:	06 c0       	rjmp	.+12     	; 0xe6a <scan_buttons+0x8e>
     e5e:	81 36       	cpi	r24, 0x61	; 97
     e60:	81 f0       	breq	.+32     	; 0xe82 <scan_buttons+0xa6>
     e62:	82 36       	cpi	r24, 0x62	; 98
     e64:	11 f4       	brne	.+4      	; 0xe6a <scan_buttons+0x8e>
     e66:	86 e0       	ldi	r24, 0x06	; 6
     e68:	08 95       	ret
     e6a:	8f e0       	ldi	r24, 0x0F	; 15
     e6c:	08 95       	ret
     e6e:	89 e0       	ldi	r24, 0x09	; 9
     e70:	08 95       	ret
     e72:	8b e0       	ldi	r24, 0x0B	; 11
     e74:	08 95       	ret
     e76:	81 e0       	ldi	r24, 0x01	; 1
     e78:	08 95       	ret
     e7a:	82 e0       	ldi	r24, 0x02	; 2
     e7c:	08 95       	ret
     e7e:	8f e0       	ldi	r24, 0x0F	; 15
     e80:	08 95       	ret
     e82:	83 e0       	ldi	r24, 0x03	; 3
     e84:	08 95       	ret

00000e86 <write_eeprom>:
}
void write_eeprom(uint8_t adr,uint8_t value){
	cli();
     e86:	f8 94       	cli
	while (EECR & (1<<EEPE));
     e88:	f9 99       	sbic	0x1f, 1	; 31
     e8a:	fe cf       	rjmp	.-4      	; 0xe88 <write_eeprom+0x2>
	EEAR = adr;
     e8c:	90 e0       	ldi	r25, 0x00	; 0
     e8e:	92 bd       	out	0x22, r25	; 34
     e90:	81 bd       	out	0x21, r24	; 33
	EEDR = value;
     e92:	60 bd       	out	0x20, r22	; 32
	EECR |= (1<<EEMPE);
     e94:	fa 9a       	sbi	0x1f, 2	; 31
	EECR |= (1<<EEPE);
     e96:	f9 9a       	sbi	0x1f, 1	; 31
	sei();
     e98:	78 94       	sei
     e9a:	08 95       	ret

00000e9c <read_eeprom>:
}

uint8_t read_eeprom(uint8_t adr){
	cli();
     e9c:	f8 94       	cli
	while (EECR & (1<<EEPE));
     e9e:	f9 99       	sbic	0x1f, 1	; 31
     ea0:	fe cf       	rjmp	.-4      	; 0xe9e <read_eeprom+0x2>
	EEAR = adr;
     ea2:	90 e0       	ldi	r25, 0x00	; 0
     ea4:	92 bd       	out	0x22, r25	; 34
     ea6:	81 bd       	out	0x21, r24	; 33
	EECR |= (1<<EERE);
     ea8:	f8 9a       	sbi	0x1f, 0	; 31
	sei();
     eaa:	78 94       	sei
	return EEDR;
     eac:	80 b5       	in	r24, 0x20	; 32
}
     eae:	08 95       	ret

00000eb0 <SetLOGO>:
#endif



//Вывод логотипа
void SetLOGO(void){
     eb0:	cf 92       	push	r12
     eb2:	df 92       	push	r13
     eb4:	ff 92       	push	r15
     eb6:	0f 93       	push	r16
     eb8:	1f 93       	push	r17
     eba:	cf 93       	push	r28
     ebc:	df 93       	push	r29
	lcd_clean();
     ebe:	0e 94 36 06 	call	0xc6c	; 0xc6c <lcd_clean>
     ec2:	0f 2e       	mov	r0, r31
     ec4:	fe e0       	ldi	r31, 0x0E	; 14
     ec6:	cf 2e       	mov	r12, r31
     ec8:	f4 e0       	ldi	r31, 0x04	; 4
     eca:	df 2e       	mov	r13, r31
     ecc:	f0 2d       	mov	r31, r0
	for(unsigned char i=0;i<8;i++){
     ece:	f1 2c       	mov	r15, r1
		WriteXY(32,i,1);
     ed0:	41 e0       	ldi	r20, 0x01	; 1
     ed2:	6f 2d       	mov	r22, r15
     ed4:	80 e2       	ldi	r24, 0x20	; 32
     ed6:	0e 94 14 06 	call	0xc28	; 0xc28 <WriteXY>
			WriteXY(0,i,2);
     eda:	42 e0       	ldi	r20, 0x02	; 2
     edc:	6f 2d       	mov	r22, r15
     ede:	80 e0       	ldi	r24, 0x00	; 0
     ee0:	0e 94 14 06 	call	0xc28	; 0xc28 <WriteXY>
     ee4:	86 01       	movw	r16, r12
     ee6:	00 5e       	subi	r16, 0xE0	; 224
     ee8:	1f 4f       	sbci	r17, 0xFF	; 255
     eea:	e6 01       	movw	r28, r12
		for(unsigned char j=0;j<32;j++){
			WriteData(pgm_read_byte(&(LOGO[i][j])), 1);
     eec:	fe 01       	movw	r30, r28
     eee:	84 91       	lpm	r24, Z
     ef0:	61 e0       	ldi	r22, 0x01	; 1
     ef2:	0e 94 f8 05 	call	0xbf0	; 0xbf0 <WriteData>
			WriteData(pgm_read_byte(&(LOGO[i][j+32])), 2);
     ef6:	fe 01       	movw	r30, r28
     ef8:	b0 96       	adiw	r30, 0x20	; 32
     efa:	84 91       	lpm	r24, Z
     efc:	62 e0       	ldi	r22, 0x02	; 2
     efe:	0e 94 f8 05 	call	0xbf0	; 0xbf0 <WriteData>
     f02:	21 96       	adiw	r28, 0x01	; 1
void SetLOGO(void){
	lcd_clean();
	for(unsigned char i=0;i<8;i++){
		WriteXY(32,i,1);
			WriteXY(0,i,2);
		for(unsigned char j=0;j<32;j++){
     f04:	c0 17       	cp	r28, r16
     f06:	d1 07       	cpc	r29, r17
     f08:	89 f7       	brne	.-30     	; 0xeec <SetLOGO+0x3c>


//Вывод логотипа
void SetLOGO(void){
	lcd_clean();
	for(unsigned char i=0;i<8;i++){
     f0a:	f3 94       	inc	r15
     f0c:	f0 e4       	ldi	r31, 0x40	; 64
     f0e:	cf 0e       	add	r12, r31
     f10:	d1 1c       	adc	r13, r1
     f12:	88 e0       	ldi	r24, 0x08	; 8
     f14:	f8 12       	cpse	r15, r24
     f16:	dc cf       	rjmp	.-72     	; 0xed0 <SetLOGO+0x20>
		for(unsigned char j=0;j<32;j++){
			WriteData(pgm_read_byte(&(LOGO[i][j])), 1);
			WriteData(pgm_read_byte(&(LOGO[i][j+32])), 2);
		}
	}
}
     f18:	df 91       	pop	r29
     f1a:	cf 91       	pop	r28
     f1c:	1f 91       	pop	r17
     f1e:	0f 91       	pop	r16
     f20:	ff 90       	pop	r15
     f22:	df 90       	pop	r13
     f24:	cf 90       	pop	r12
     f26:	08 95       	ret

00000f28 <SetROJER>:

//page=10 "Вывод Роджера"
void SetROJER(void){
     f28:	cf 92       	push	r12
     f2a:	df 92       	push	r13
     f2c:	ff 92       	push	r15
     f2e:	0f 93       	push	r16
     f30:	1f 93       	push	r17
     f32:	cf 93       	push	r28
     f34:	df 93       	push	r29
	if(update){
     f36:	80 91 e8 06 	lds	r24, 0x06E8	; 0x8006e8 <update>
     f3a:	88 23       	and	r24, r24
     f3c:	79 f1       	breq	.+94     	; 0xf9c <SetROJER+0x74>
		lcd_clean();
     f3e:	0e 94 36 06 	call	0xc6c	; 0xc6c <lcd_clean>
     f42:	0f 2e       	mov	r0, r31
     f44:	fe ee       	ldi	r31, 0xEE	; 238
     f46:	cf 2e       	mov	r12, r31
     f48:	f1 e0       	ldi	r31, 0x01	; 1
     f4a:	df 2e       	mov	r13, r31
     f4c:	f0 2d       	mov	r31, r0
		for(unsigned char i=0;i<8;i++){
     f4e:	f1 2c       	mov	r15, r1
			WriteXY(30,i,1);
     f50:	41 e0       	ldi	r20, 0x01	; 1
     f52:	6f 2d       	mov	r22, r15
     f54:	8e e1       	ldi	r24, 0x1E	; 30
     f56:	0e 94 14 06 	call	0xc28	; 0xc28 <WriteXY>
			WriteXY(0,i,2);
     f5a:	42 e0       	ldi	r20, 0x02	; 2
     f5c:	6f 2d       	mov	r22, r15
     f5e:	80 e0       	ldi	r24, 0x00	; 0
     f60:	0e 94 14 06 	call	0xc28	; 0xc28 <WriteXY>
     f64:	86 01       	movw	r16, r12
     f66:	0e 5d       	subi	r16, 0xDE	; 222
     f68:	1f 4f       	sbci	r17, 0xFF	; 255
     f6a:	e6 01       	movw	r28, r12
			for(unsigned char j=0;j<34;j++){
				WriteData(pgm_read_byte(&(ROJER[i][j])), 1);
     f6c:	fe 01       	movw	r30, r28
     f6e:	84 91       	lpm	r24, Z
     f70:	61 e0       	ldi	r22, 0x01	; 1
     f72:	0e 94 f8 05 	call	0xbf0	; 0xbf0 <WriteData>
				WriteData(pgm_read_byte(&(ROJER[i][j+34])), 2);
     f76:	fe 01       	movw	r30, r28
     f78:	b2 96       	adiw	r30, 0x22	; 34
     f7a:	84 91       	lpm	r24, Z
     f7c:	62 e0       	ldi	r22, 0x02	; 2
     f7e:	0e 94 f8 05 	call	0xbf0	; 0xbf0 <WriteData>
     f82:	21 96       	adiw	r28, 0x01	; 1
	if(update){
		lcd_clean();
		for(unsigned char i=0;i<8;i++){
			WriteXY(30,i,1);
			WriteXY(0,i,2);
			for(unsigned char j=0;j<34;j++){
     f84:	c0 17       	cp	r28, r16
     f86:	d1 07       	cpc	r29, r17
     f88:	89 f7       	brne	.-30     	; 0xf6c <SetROJER+0x44>

//page=10 "Вывод Роджера"
void SetROJER(void){
	if(update){
		lcd_clean();
		for(unsigned char i=0;i<8;i++){
     f8a:	f3 94       	inc	r15
     f8c:	f4 e4       	ldi	r31, 0x44	; 68
     f8e:	cf 0e       	add	r12, r31
     f90:	d1 1c       	adc	r13, r1
     f92:	88 e0       	ldi	r24, 0x08	; 8
     f94:	f8 12       	cpse	r15, r24
     f96:	dc cf       	rjmp	.-72     	; 0xf50 <SetROJER+0x28>
			for(unsigned char j=0;j<34;j++){
				WriteData(pgm_read_byte(&(ROJER[i][j])), 1);
				WriteData(pgm_read_byte(&(ROJER[i][j+34])), 2);
			}
		}
		update=0;
     f98:	10 92 e8 06 	sts	0x06E8, r1	; 0x8006e8 <update>
	}
}
     f9c:	df 91       	pop	r29
     f9e:	cf 91       	pop	r28
     fa0:	1f 91       	pop	r17
     fa2:	0f 91       	pop	r16
     fa4:	ff 90       	pop	r15
     fa6:	df 90       	pop	r13
     fa8:	cf 90       	pop	r12
     faa:	08 95       	ret

00000fac <Set_MAIN>:

//page=0	"Основное меню"
void Set_MAIN(void){
	if(update){
     fac:	80 91 e8 06 	lds	r24, 0x06E8	; 0x8006e8 <update>
     fb0:	88 23       	and	r24, r24
     fb2:	a1 f1       	breq	.+104    	; 0x101c <Set_MAIN+0x70>
		lcd_bufer[0]=sistem_mode;
     fb4:	80 91 69 02 	lds	r24, 0x0269	; 0x800269 <sistem_mode>
     fb8:	80 93 ed 06 	sts	0x06ED, r24	; 0x8006ed <lcd_bufer>
		SetLOGO();
     fbc:	0e 94 58 07 	call	0xeb0	; 0xeb0 <SetLOGO>
		if(PU_mode){
     fc0:	80 91 eb 06 	lds	r24, 0x06EB	; 0x8006eb <PU_mode>
     fc4:	88 23       	and	r24, r24
     fc6:	69 f0       	breq	.+26     	; 0xfe2 <Set_MAIN+0x36>
			lcd_set_string("ПУ",12,3);
     fc8:	43 e0       	ldi	r20, 0x03	; 3
     fca:	6c e0       	ldi	r22, 0x0C	; 12
     fcc:	8a e6       	ldi	r24, 0x6A	; 106
     fce:	92 e0       	ldi	r25, 0x02	; 2
     fd0:	0e 94 99 06 	call	0xd32	; 0xd32 <lcd_set_string>
			lcd_set_string("ДПНК",6,4);
     fd4:	44 e0       	ldi	r20, 0x04	; 4
     fd6:	66 e0       	ldi	r22, 0x06	; 6
     fd8:	8a e6       	ldi	r24, 0x6A	; 106
     fda:	94 e0       	ldi	r25, 0x04	; 4
     fdc:	0e 94 99 06 	call	0xd32	; 0xd32 <lcd_set_string>
     fe0:	06 c0       	rjmp	.+12     	; 0xfee <Set_MAIN+0x42>
		}
		else lcd_set_string("ПУ ДК",6,4);
     fe2:	44 e0       	ldi	r20, 0x04	; 4
     fe4:	66 e0       	ldi	r22, 0x06	; 6
     fe6:	8d e6       	ldi	r24, 0x6D	; 109
     fe8:	92 e0       	ldi	r25, 0x02	; 2
     fea:	0e 94 99 06 	call	0xd32	; 0xd32 <lcd_set_string>
		lcd_set_string("Режим",98,3);
     fee:	43 e0       	ldi	r20, 0x03	; 3
     ff0:	62 e6       	ldi	r22, 0x62	; 98
     ff2:	83 e7       	ldi	r24, 0x73	; 115
     ff4:	92 e0       	ldi	r25, 0x02	; 2
     ff6:	0e 94 99 06 	call	0xd32	; 0xd32 <lcd_set_string>
		if(sistem_mode==1)lcd_set_ch(0x31,110,4);
     ffa:	80 91 69 02 	lds	r24, 0x0269	; 0x800269 <sistem_mode>
     ffe:	81 30       	cpi	r24, 0x01	; 1
    1000:	31 f4       	brne	.+12     	; 0x100e <Set_MAIN+0x62>
    1002:	44 e0       	ldi	r20, 0x04	; 4
    1004:	6e e6       	ldi	r22, 0x6E	; 110
    1006:	81 e3       	ldi	r24, 0x31	; 49
    1008:	0e 94 4e 06 	call	0xc9c	; 0xc9c <lcd_set_ch>
    100c:	05 c0       	rjmp	.+10     	; 0x1018 <Set_MAIN+0x6c>
		else lcd_set_ch(0x32,110,4);
    100e:	44 e0       	ldi	r20, 0x04	; 4
    1010:	6e e6       	ldi	r22, 0x6E	; 110
    1012:	82 e3       	ldi	r24, 0x32	; 50
    1014:	0e 94 4e 06 	call	0xc9c	; 0xc9c <lcd_set_ch>
		update=0;
    1018:	10 92 e8 06 	sts	0x06E8, r1	; 0x8006e8 <update>
	}
	if(lcd_bufer[0]!=sistem_mode)update=1;
    101c:	90 91 ed 06 	lds	r25, 0x06ED	; 0x8006ed <lcd_bufer>
    1020:	80 91 69 02 	lds	r24, 0x0269	; 0x800269 <sistem_mode>
    1024:	98 17       	cp	r25, r24
    1026:	19 f0       	breq	.+6      	; 0x102e <Set_MAIN+0x82>
    1028:	81 e0       	ldi	r24, 0x01	; 1
    102a:	80 93 e8 06 	sts	0x06E8, r24	; 0x8006e8 <update>
	if(BUT_FIX==1){
    102e:	80 91 ea 06 	lds	r24, 0x06EA	; 0x8006ea <BUT_FIX>
    1032:	81 30       	cpi	r24, 0x01	; 1
    1034:	d9 f4       	brne	.+54     	; 0x106c <Set_MAIN+0xc0>
		switch(BUTTON){
    1036:	80 91 68 02 	lds	r24, 0x0268	; 0x800268 <BUTTON>
    103a:	8a 30       	cpi	r24, 0x0A	; 10
    103c:	19 f0       	breq	.+6      	; 0x1044 <Set_MAIN+0x98>
    103e:	8b 30       	cpi	r24, 0x0B	; 11
    1040:	79 f0       	breq	.+30     	; 0x1060 <Set_MAIN+0xb4>
    1042:	04 c0       	rjmp	.+8      	; 0x104c <Set_MAIN+0xa0>
			case 10:page=2;break;
    1044:	82 e0       	ldi	r24, 0x02	; 2
    1046:	80 93 e9 06 	sts	0x06E9, r24	; 0x8006e9 <page>
    104a:	0a c0       	rjmp	.+20     	; 0x1060 <Set_MAIN+0xb4>
			case 11:break;
			default:page=1;big_digit_1=BUTTON;big_digit_2=10;break;
    104c:	81 e0       	ldi	r24, 0x01	; 1
    104e:	80 93 e9 06 	sts	0x06E9, r24	; 0x8006e9 <page>
    1052:	80 91 68 02 	lds	r24, 0x0268	; 0x800268 <BUTTON>
    1056:	80 93 67 02 	sts	0x0267, r24	; 0x800267 <big_digit_1>
    105a:	8a e0       	ldi	r24, 0x0A	; 10
    105c:	80 93 66 02 	sts	0x0266, r24	; 0x800266 <big_digit_2>
		}
		BUT_FIX=2;
    1060:	82 e0       	ldi	r24, 0x02	; 2
    1062:	80 93 ea 06 	sts	0x06EA, r24	; 0x8006ea <BUT_FIX>
		update=1;
    1066:	81 e0       	ldi	r24, 0x01	; 1
    1068:	80 93 e8 06 	sts	0x06E8, r24	; 0x8006e8 <update>
    106c:	08 95       	ret

0000106e <Set_EMZ>:
	}
}

//page=1		меню ввода номера ЭМЗ
void Set_EMZ(){
	if(update){
    106e:	80 91 e8 06 	lds	r24, 0x06E8	; 0x8006e8 <update>
    1072:	88 23       	and	r24, r24
    1074:	89 f1       	breq	.+98     	; 0x10d8 <Set_EMZ+0x6a>
		lcd_bufer[0]=sistem_mode;
    1076:	80 91 69 02 	lds	r24, 0x0269	; 0x800269 <sistem_mode>
    107a:	80 93 ed 06 	sts	0x06ED, r24	; 0x8006ed <lcd_bufer>
		lcd_clean();
    107e:	0e 94 36 06 	call	0xc6c	; 0xc6c <lcd_clean>
		if(sistem_mode==1)lcd_set_string("Режим 1",42,0);
    1082:	80 91 69 02 	lds	r24, 0x0269	; 0x800269 <sistem_mode>
    1086:	81 30       	cpi	r24, 0x01	; 1
    1088:	39 f4       	brne	.+14     	; 0x1098 <Set_EMZ+0x2a>
    108a:	40 e0       	ldi	r20, 0x00	; 0
    108c:	6a e2       	ldi	r22, 0x2A	; 42
    108e:	89 e7       	ldi	r24, 0x79	; 121
    1090:	92 e0       	ldi	r25, 0x02	; 2
    1092:	0e 94 99 06 	call	0xd32	; 0xd32 <lcd_set_string>
    1096:	06 c0       	rjmp	.+12     	; 0x10a4 <Set_EMZ+0x36>
		else lcd_set_string("Режим 2",42,0);
    1098:	40 e0       	ldi	r20, 0x00	; 0
    109a:	6a e2       	ldi	r22, 0x2A	; 42
    109c:	81 e8       	ldi	r24, 0x81	; 129
    109e:	92 e0       	ldi	r25, 0x02	; 2
    10a0:	0e 94 99 06 	call	0xd32	; 0xd32 <lcd_set_string>
		if(big_digit_1<10)lcd_set_big_digit(big_digit_1,1);
    10a4:	80 91 67 02 	lds	r24, 0x0267	; 0x800267 <big_digit_1>
    10a8:	8a 30       	cpi	r24, 0x0A	; 10
    10aa:	28 f4       	brcc	.+10     	; 0x10b6 <Set_EMZ+0x48>
    10ac:	80 91 67 02 	lds	r24, 0x0267	; 0x800267 <big_digit_1>
    10b0:	61 e0       	ldi	r22, 0x01	; 1
    10b2:	0e 94 b5 06 	call	0xd6a	; 0xd6a <lcd_set_big_digit>
		if(big_digit_2<10)lcd_set_big_digit(big_digit_2,2);
    10b6:	80 91 66 02 	lds	r24, 0x0266	; 0x800266 <big_digit_2>
    10ba:	8a 30       	cpi	r24, 0x0A	; 10
    10bc:	28 f4       	brcc	.+10     	; 0x10c8 <Set_EMZ+0x5a>
    10be:	80 91 66 02 	lds	r24, 0x0266	; 0x800266 <big_digit_2>
    10c2:	62 e0       	ldi	r22, 0x02	; 2
    10c4:	0e 94 b5 06 	call	0xd6a	; 0xd6a <lcd_set_big_digit>
		lcd_set_string("*-Отмена",0,7);
    10c8:	47 e0       	ldi	r20, 0x07	; 7
    10ca:	60 e0       	ldi	r22, 0x00	; 0
    10cc:	89 e8       	ldi	r24, 0x89	; 137
    10ce:	92 e0       	ldi	r25, 0x02	; 2
    10d0:	0e 94 99 06 	call	0xd32	; 0xd32 <lcd_set_string>
		update=0;
    10d4:	10 92 e8 06 	sts	0x06E8, r1	; 0x8006e8 <update>
	}
	if(lcd_bufer[0]!=sistem_mode)update=1;
    10d8:	90 91 ed 06 	lds	r25, 0x06ED	; 0x8006ed <lcd_bufer>
    10dc:	80 91 69 02 	lds	r24, 0x0269	; 0x800269 <sistem_mode>
    10e0:	98 17       	cp	r25, r24
    10e2:	19 f0       	breq	.+6      	; 0x10ea <Set_EMZ+0x7c>
    10e4:	81 e0       	ldi	r24, 0x01	; 1
    10e6:	80 93 e8 06 	sts	0x06E8, r24	; 0x8006e8 <update>
	if(BUT_FIX==1){
    10ea:	80 91 ea 06 	lds	r24, 0x06EA	; 0x8006ea <BUT_FIX>
    10ee:	81 30       	cpi	r24, 0x01	; 1
    10f0:	09 f0       	breq	.+2      	; 0x10f4 <Set_EMZ+0x86>
    10f2:	48 c0       	rjmp	.+144    	; 0x1184 <Set_EMZ+0x116>
		switch(BUTTON){
    10f4:	80 91 68 02 	lds	r24, 0x0268	; 0x800268 <BUTTON>
    10f8:	8a 30       	cpi	r24, 0x0A	; 10
    10fa:	19 f0       	breq	.+6      	; 0x1102 <Set_EMZ+0x94>
    10fc:	8b 30       	cpi	r24, 0x0B	; 11
    10fe:	e1 f1       	breq	.+120    	; 0x1178 <Set_EMZ+0x10a>
    1100:	03 c0       	rjmp	.+6      	; 0x1108 <Set_EMZ+0x9a>
			case 10:page=0;break;
    1102:	10 92 e9 06 	sts	0x06E9, r1	; 0x8006e9 <page>
    1106:	38 c0       	rjmp	.+112    	; 0x1178 <Set_EMZ+0x10a>
			case 11:break;
			default:
				big_digit_2=BUTTON;
    1108:	80 91 68 02 	lds	r24, 0x0268	; 0x800268 <BUTTON>
    110c:	80 93 66 02 	sts	0x0266, r24	; 0x800266 <big_digit_2>
				if(((big_digit_1*10+big_digit_2)>64)||((big_digit_1*10+big_digit_2)==0)){
    1110:	80 91 67 02 	lds	r24, 0x0267	; 0x800267 <big_digit_1>
    1114:	20 91 66 02 	lds	r18, 0x0266	; 0x800266 <big_digit_2>
    1118:	90 e0       	ldi	r25, 0x00	; 0
    111a:	ac 01       	movw	r20, r24
    111c:	44 0f       	add	r20, r20
    111e:	55 1f       	adc	r21, r21
    1120:	88 0f       	add	r24, r24
    1122:	99 1f       	adc	r25, r25
    1124:	88 0f       	add	r24, r24
    1126:	99 1f       	adc	r25, r25
    1128:	88 0f       	add	r24, r24
    112a:	99 1f       	adc	r25, r25
    112c:	84 0f       	add	r24, r20
    112e:	95 1f       	adc	r25, r21
    1130:	82 0f       	add	r24, r18
    1132:	91 1d       	adc	r25, r1
    1134:	81 34       	cpi	r24, 0x41	; 65
    1136:	91 05       	cpc	r25, r1
    1138:	a4 f4       	brge	.+40     	; 0x1162 <Set_EMZ+0xf4>
    113a:	80 91 67 02 	lds	r24, 0x0267	; 0x800267 <big_digit_1>
    113e:	20 91 66 02 	lds	r18, 0x0266	; 0x800266 <big_digit_2>
    1142:	90 e0       	ldi	r25, 0x00	; 0
    1144:	ac 01       	movw	r20, r24
    1146:	44 0f       	add	r20, r20
    1148:	55 1f       	adc	r21, r21
    114a:	88 0f       	add	r24, r24
    114c:	99 1f       	adc	r25, r25
    114e:	88 0f       	add	r24, r24
    1150:	99 1f       	adc	r25, r25
    1152:	88 0f       	add	r24, r24
    1154:	99 1f       	adc	r25, r25
    1156:	84 0f       	add	r24, r20
    1158:	95 1f       	adc	r25, r21
    115a:	82 0f       	add	r24, r18
    115c:	91 1d       	adc	r25, r1
    115e:	89 2b       	or	r24, r25
    1160:	41 f4       	brne	.+16     	; 0x1172 <Set_EMZ+0x104>
					page=0;
    1162:	10 92 e9 06 	sts	0x06E9, r1	; 0x8006e9 <page>
					big_digit_1=10;
    1166:	8a e0       	ldi	r24, 0x0A	; 10
    1168:	80 93 67 02 	sts	0x0267, r24	; 0x800267 <big_digit_1>
					big_digit_2=10;
    116c:	80 93 66 02 	sts	0x0266, r24	; 0x800266 <big_digit_2>
    1170:	03 c0       	rjmp	.+6      	; 0x1178 <Set_EMZ+0x10a>
				}
				else{
					page=3;
    1172:	83 e0       	ldi	r24, 0x03	; 3
    1174:	80 93 e9 06 	sts	0x06E9, r24	; 0x8006e9 <page>
				}
				
				break;
		}
		BUT_FIX=2;
    1178:	82 e0       	ldi	r24, 0x02	; 2
    117a:	80 93 ea 06 	sts	0x06EA, r24	; 0x8006ea <BUT_FIX>
		update=1;
    117e:	81 e0       	ldi	r24, 0x01	; 1
    1180:	80 93 e8 06 	sts	0x06E8, r24	; 0x8006e8 <update>
    1184:	08 95       	ret

00001186 <EMZ_info>:
	}
}
//page=3		Информация о замке
void EMZ_info(void){
    1186:	0f 93       	push	r16
    1188:	1f 93       	push	r17
    118a:	cf 93       	push	r28
	uint8_t EMZ_num=big_digit_1*10+big_digit_2-1;
    118c:	80 91 67 02 	lds	r24, 0x0267	; 0x800267 <big_digit_1>
    1190:	90 91 66 02 	lds	r25, 0x0266	; 0x800266 <big_digit_2>
    1194:	88 0f       	add	r24, r24
    1196:	c8 2f       	mov	r28, r24
    1198:	cc 0f       	add	r28, r28
    119a:	cc 0f       	add	r28, r28
    119c:	c8 0f       	add	r28, r24
    119e:	91 50       	subi	r25, 0x01	; 1
    11a0:	c9 0f       	add	r28, r25
	if(update){
    11a2:	80 91 e8 06 	lds	r24, 0x06E8	; 0x8006e8 <update>
    11a6:	88 23       	and	r24, r24
    11a8:	09 f4       	brne	.+2      	; 0x11ac <EMZ_info+0x26>
    11aa:	ee c0       	rjmp	.+476    	; 0x1388 <EMZ_info+0x202>
		lcd_bufer[0]=sistem_mode;
    11ac:	80 91 69 02 	lds	r24, 0x0269	; 0x800269 <sistem_mode>
    11b0:	ed ee       	ldi	r30, 0xED	; 237
    11b2:	f6 e0       	ldi	r31, 0x06	; 6
    11b4:	80 83       	st	Z, r24
		lcd_bufer[1]=EMZ.status[EMZ_num];
    11b6:	0c 2f       	mov	r16, r28
    11b8:	10 e0       	ldi	r17, 0x00	; 0
    11ba:	d8 01       	movw	r26, r16
    11bc:	a0 50       	subi	r26, 0x00	; 0
    11be:	bf 4f       	sbci	r27, 0xFF	; 255
    11c0:	8c 91       	ld	r24, X
    11c2:	81 83       	std	Z+1, r24	; 0x01
		lcd_bufer[2]=EMZ.cap[EMZ_num];
    11c4:	a0 56       	subi	r26, 0x60	; 96
    11c6:	bf 4f       	sbci	r27, 0xFF	; 255
    11c8:	8c 91       	ld	r24, X
    11ca:	82 83       	std	Z+2, r24	; 0x02
		lcd_bufer[3]=DPNK_BLOCK;
    11cc:	80 91 65 02 	lds	r24, 0x0265	; 0x800265 <DPNK_BLOCK>
    11d0:	83 83       	std	Z+3, r24	; 0x03
	  if(!duble_open){
    11d2:	80 91 d3 06 	lds	r24, 0x06D3	; 0x8006d3 <duble_open>
    11d6:	81 11       	cpse	r24, r1
    11d8:	ae c0       	rjmp	.+348    	; 0x1336 <EMZ_info+0x1b0>
		lcd_clean();
    11da:	0e 94 36 06 	call	0xc6c	; 0xc6c <lcd_clean>
		if(sistem_mode==1)lcd_set_string("Режим 1",42,0);
    11de:	80 91 69 02 	lds	r24, 0x0269	; 0x800269 <sistem_mode>
    11e2:	81 30       	cpi	r24, 0x01	; 1
    11e4:	39 f4       	brne	.+14     	; 0x11f4 <EMZ_info+0x6e>
    11e6:	40 e0       	ldi	r20, 0x00	; 0
    11e8:	6a e2       	ldi	r22, 0x2A	; 42
    11ea:	89 e7       	ldi	r24, 0x79	; 121
    11ec:	92 e0       	ldi	r25, 0x02	; 2
    11ee:	0e 94 99 06 	call	0xd32	; 0xd32 <lcd_set_string>
    11f2:	06 c0       	rjmp	.+12     	; 0x1200 <EMZ_info+0x7a>
		else lcd_set_string("Режим 2",42,0);
    11f4:	40 e0       	ldi	r20, 0x00	; 0
    11f6:	6a e2       	ldi	r22, 0x2A	; 42
    11f8:	81 e8       	ldi	r24, 0x81	; 129
    11fa:	92 e0       	ldi	r25, 0x02	; 2
    11fc:	0e 94 99 06 	call	0xd32	; 0xd32 <lcd_set_string>
		if(big_digit_1<10)lcd_set_big_digit(big_digit_1,1);
    1200:	80 91 67 02 	lds	r24, 0x0267	; 0x800267 <big_digit_1>
    1204:	8a 30       	cpi	r24, 0x0A	; 10
    1206:	28 f4       	brcc	.+10     	; 0x1212 <EMZ_info+0x8c>
    1208:	80 91 67 02 	lds	r24, 0x0267	; 0x800267 <big_digit_1>
    120c:	61 e0       	ldi	r22, 0x01	; 1
    120e:	0e 94 b5 06 	call	0xd6a	; 0xd6a <lcd_set_big_digit>
		if(big_digit_2<10)lcd_set_big_digit(big_digit_2,2);
    1212:	80 91 66 02 	lds	r24, 0x0266	; 0x800266 <big_digit_2>
    1216:	8a 30       	cpi	r24, 0x0A	; 10
    1218:	28 f4       	brcc	.+10     	; 0x1224 <EMZ_info+0x9e>
    121a:	80 91 66 02 	lds	r24, 0x0266	; 0x800266 <big_digit_2>
    121e:	62 e0       	ldi	r22, 0x02	; 2
    1220:	0e 94 b5 06 	call	0xd6a	; 0xd6a <lcd_set_big_digit>
		//EMZ.status[EMZ_num]=BLOCK;
		if(EMZ.status[EMZ_num]==DISCONNECT){
    1224:	f8 01       	movw	r30, r16
    1226:	e0 50       	subi	r30, 0x00	; 0
    1228:	ff 4f       	sbci	r31, 0xFF	; 255
    122a:	80 81       	ld	r24, Z
    122c:	84 34       	cpi	r24, 0x44	; 68
    122e:	69 f4       	brne	.+26     	; 0x124a <EMZ_info+0xc4>
			lcd_set_string("Отсутствует",30,5);
    1230:	45 e0       	ldi	r20, 0x05	; 5
    1232:	6e e1       	ldi	r22, 0x1E	; 30
    1234:	82 e9       	ldi	r24, 0x92	; 146
    1236:	92 e0       	ldi	r25, 0x02	; 2
    1238:	0e 94 99 06 	call	0xd32	; 0xd32 <lcd_set_string>
			lcd_set_string("*-Отмена",0,7);
    123c:	47 e0       	ldi	r20, 0x07	; 7
    123e:	60 e0       	ldi	r22, 0x00	; 0
    1240:	89 e8       	ldi	r24, 0x89	; 137
    1242:	92 e0       	ldi	r25, 0x02	; 2
    1244:	0e 94 99 06 	call	0xd32	; 0xd32 <lcd_set_string>
    1248:	9d c0       	rjmp	.+314    	; 0x1384 <EMZ_info+0x1fe>
		}
		else if(EMZ.status[EMZ_num]==BLOCK){
    124a:	82 34       	cpi	r24, 0x42	; 66
    124c:	09 f0       	breq	.+2      	; 0x1250 <EMZ_info+0xca>
    124e:	48 c0       	rjmp	.+144    	; 0x12e0 <EMZ_info+0x15a>
			lcd_set_string("Заблокирован",30,5);
    1250:	45 e0       	ldi	r20, 0x05	; 5
    1252:	6e e1       	ldi	r22, 0x1E	; 30
    1254:	8e e9       	ldi	r24, 0x9E	; 158
    1256:	92 e0       	ldi	r25, 0x02	; 2
    1258:	0e 94 99 06 	call	0xd32	; 0xd32 <lcd_set_string>
			if(sistem_mode==1){
    125c:	80 91 69 02 	lds	r24, 0x0269	; 0x800269 <sistem_mode>
    1260:	81 30       	cpi	r24, 0x01	; 1
    1262:	f9 f4       	brne	.+62     	; 0x12a2 <EMZ_info+0x11c>
				if(EMZ.cap[EMZ_num]==FULL){
    1264:	f8 01       	movw	r30, r16
    1266:	e0 56       	subi	r30, 0x60	; 96
    1268:	fe 4f       	sbci	r31, 0xFE	; 254
    126a:	80 81       	ld	r24, Z
    126c:	86 34       	cpi	r24, 0x46	; 70
    126e:	91 f4       	brne	.+36     	; 0x1294 <EMZ_info+0x10e>
					if(PU_mode==DPNK)lcd_set_string("*-Отмена   #-Разблок.",0,7);
    1270:	80 91 eb 06 	lds	r24, 0x06EB	; 0x8006eb <PU_mode>
    1274:	81 30       	cpi	r24, 0x01	; 1
    1276:	39 f4       	brne	.+14     	; 0x1286 <EMZ_info+0x100>
    1278:	47 e0       	ldi	r20, 0x07	; 7
    127a:	60 e0       	ldi	r22, 0x00	; 0
    127c:	8b ea       	ldi	r24, 0xAB	; 171
    127e:	92 e0       	ldi	r25, 0x02	; 2
    1280:	0e 94 99 06 	call	0xd32	; 0xd32 <lcd_set_string>
    1284:	7f c0       	rjmp	.+254    	; 0x1384 <EMZ_info+0x1fe>
					else lcd_set_string("*-Отмена",0,7);
    1286:	47 e0       	ldi	r20, 0x07	; 7
    1288:	60 e0       	ldi	r22, 0x00	; 0
    128a:	89 e8       	ldi	r24, 0x89	; 137
    128c:	92 e0       	ldi	r25, 0x02	; 2
    128e:	0e 94 99 06 	call	0xd32	; 0xd32 <lcd_set_string>
    1292:	78 c0       	rjmp	.+240    	; 0x1384 <EMZ_info+0x1fe>
				}
				else lcd_set_string("*-Отмена   Идет заряд",0,7);
    1294:	47 e0       	ldi	r20, 0x07	; 7
    1296:	60 e0       	ldi	r22, 0x00	; 0
    1298:	81 ec       	ldi	r24, 0xC1	; 193
    129a:	92 e0       	ldi	r25, 0x02	; 2
    129c:	0e 94 99 06 	call	0xd32	; 0xd32 <lcd_set_string>
    12a0:	71 c0       	rjmp	.+226    	; 0x1384 <EMZ_info+0x1fe>
			}
			else{
				if(EMZ.cap[EMZ_num]==FULL){
    12a2:	f8 01       	movw	r30, r16
    12a4:	e0 56       	subi	r30, 0x60	; 96
    12a6:	fe 4f       	sbci	r31, 0xFE	; 254
    12a8:	80 81       	ld	r24, Z
    12aa:	86 34       	cpi	r24, 0x46	; 70
    12ac:	91 f4       	brne	.+36     	; 0x12d2 <EMZ_info+0x14c>
					if(PU_mode==DPNK)lcd_set_string("*-Отмена",0,7);
    12ae:	80 91 eb 06 	lds	r24, 0x06EB	; 0x8006eb <PU_mode>
    12b2:	81 30       	cpi	r24, 0x01	; 1
    12b4:	39 f4       	brne	.+14     	; 0x12c4 <EMZ_info+0x13e>
    12b6:	47 e0       	ldi	r20, 0x07	; 7
    12b8:	60 e0       	ldi	r22, 0x00	; 0
    12ba:	89 e8       	ldi	r24, 0x89	; 137
    12bc:	92 e0       	ldi	r25, 0x02	; 2
    12be:	0e 94 99 06 	call	0xd32	; 0xd32 <lcd_set_string>
    12c2:	60 c0       	rjmp	.+192    	; 0x1384 <EMZ_info+0x1fe>
					else lcd_set_string("*-Отмена   #-Разблок.",0,7);
    12c4:	47 e0       	ldi	r20, 0x07	; 7
    12c6:	60 e0       	ldi	r22, 0x00	; 0
    12c8:	8b ea       	ldi	r24, 0xAB	; 171
    12ca:	92 e0       	ldi	r25, 0x02	; 2
    12cc:	0e 94 99 06 	call	0xd32	; 0xd32 <lcd_set_string>
    12d0:	59 c0       	rjmp	.+178    	; 0x1384 <EMZ_info+0x1fe>
				}
				else lcd_set_string("*-Отмена   Идет заряд",0,7);
    12d2:	47 e0       	ldi	r20, 0x07	; 7
    12d4:	60 e0       	ldi	r22, 0x00	; 0
    12d6:	81 ec       	ldi	r24, 0xC1	; 193
    12d8:	92 e0       	ldi	r25, 0x02	; 2
    12da:	0e 94 99 06 	call	0xd32	; 0xd32 <lcd_set_string>
    12de:	52 c0       	rjmp	.+164    	; 0x1384 <EMZ_info+0x1fe>
			}
		}
		else if(EMZ.status[EMZ_num]==OPEN){
    12e0:	8f 34       	cpi	r24, 0x4F	; 79
    12e2:	d1 f4       	brne	.+52     	; 0x1318 <EMZ_info+0x192>
			lcd_set_string("Разблокирован",27,5);
    12e4:	45 e0       	ldi	r20, 0x05	; 5
    12e6:	6b e1       	ldi	r22, 0x1B	; 27
    12e8:	87 ed       	ldi	r24, 0xD7	; 215
    12ea:	92 e0       	ldi	r25, 0x02	; 2
    12ec:	0e 94 99 06 	call	0xd32	; 0xd32 <lcd_set_string>
			if(EMZ.cap[EMZ_num]==FULL)lcd_set_string("*-Отмена",0,7);
    12f0:	f8 01       	movw	r30, r16
    12f2:	e0 56       	subi	r30, 0x60	; 96
    12f4:	fe 4f       	sbci	r31, 0xFE	; 254
    12f6:	80 81       	ld	r24, Z
    12f8:	86 34       	cpi	r24, 0x46	; 70
    12fa:	39 f4       	brne	.+14     	; 0x130a <EMZ_info+0x184>
    12fc:	47 e0       	ldi	r20, 0x07	; 7
    12fe:	60 e0       	ldi	r22, 0x00	; 0
    1300:	89 e8       	ldi	r24, 0x89	; 137
    1302:	92 e0       	ldi	r25, 0x02	; 2
    1304:	0e 94 99 06 	call	0xd32	; 0xd32 <lcd_set_string>
    1308:	3d c0       	rjmp	.+122    	; 0x1384 <EMZ_info+0x1fe>
			else lcd_set_string("*-Отмена   Идет заряд",0,7);
    130a:	47 e0       	ldi	r20, 0x07	; 7
    130c:	60 e0       	ldi	r22, 0x00	; 0
    130e:	81 ec       	ldi	r24, 0xC1	; 193
    1310:	92 e0       	ldi	r25, 0x02	; 2
    1312:	0e 94 99 06 	call	0xd32	; 0xd32 <lcd_set_string>
    1316:	36 c0       	rjmp	.+108    	; 0x1384 <EMZ_info+0x1fe>
		}
		else if(EMZ.status[EMZ_num]==ERROR){
    1318:	85 34       	cpi	r24, 0x45	; 69
    131a:	a1 f5       	brne	.+104    	; 0x1384 <EMZ_info+0x1fe>
			lcd_set_string("Нет связи",36,5);
    131c:	45 e0       	ldi	r20, 0x05	; 5
    131e:	64 e2       	ldi	r22, 0x24	; 36
    1320:	85 ee       	ldi	r24, 0xE5	; 229
    1322:	92 e0       	ldi	r25, 0x02	; 2
    1324:	0e 94 99 06 	call	0xd32	; 0xd32 <lcd_set_string>
			lcd_set_string("*-Отмена",0,7);
    1328:	47 e0       	ldi	r20, 0x07	; 7
    132a:	60 e0       	ldi	r22, 0x00	; 0
    132c:	89 e8       	ldi	r24, 0x89	; 137
    132e:	92 e0       	ldi	r25, 0x02	; 2
    1330:	0e 94 99 06 	call	0xd32	; 0xd32 <lcd_set_string>
    1334:	27 c0       	rjmp	.+78     	; 0x1384 <EMZ_info+0x1fe>
		}
	  }
	  else{
		  lcd_clean();
    1336:	0e 94 36 06 	call	0xc6c	; 0xc6c <lcd_clean>
		  if(sistem_mode==1)lcd_set_string("Режим 1",42,0);
    133a:	80 91 69 02 	lds	r24, 0x0269	; 0x800269 <sistem_mode>
    133e:	81 30       	cpi	r24, 0x01	; 1
    1340:	39 f4       	brne	.+14     	; 0x1350 <EMZ_info+0x1ca>
    1342:	40 e0       	ldi	r20, 0x00	; 0
    1344:	6a e2       	ldi	r22, 0x2A	; 42
    1346:	89 e7       	ldi	r24, 0x79	; 121
    1348:	92 e0       	ldi	r25, 0x02	; 2
    134a:	0e 94 99 06 	call	0xd32	; 0xd32 <lcd_set_string>
    134e:	06 c0       	rjmp	.+12     	; 0x135c <EMZ_info+0x1d6>
		  else lcd_set_string("Режим 2",42,0);
    1350:	40 e0       	ldi	r20, 0x00	; 0
    1352:	6a e2       	ldi	r22, 0x2A	; 42
    1354:	81 e8       	ldi	r24, 0x81	; 129
    1356:	92 e0       	ldi	r25, 0x02	; 2
    1358:	0e 94 99 06 	call	0xd32	; 0xd32 <lcd_set_string>
		  lcd_set_string("Закройте",39,2);
    135c:	42 e0       	ldi	r20, 0x02	; 2
    135e:	67 e2       	ldi	r22, 0x27	; 39
    1360:	8f ee       	ldi	r24, 0xEF	; 239
    1362:	92 e0       	ldi	r25, 0x02	; 2
    1364:	0e 94 99 06 	call	0xd32	; 0xd32 <lcd_set_string>
		  lcd_set_string("все замки!",33,4);
    1368:	44 e0       	ldi	r20, 0x04	; 4
    136a:	61 e2       	ldi	r22, 0x21	; 33
    136c:	88 ef       	ldi	r24, 0xF8	; 248
    136e:	92 e0       	ldi	r25, 0x02	; 2
    1370:	0e 94 99 06 	call	0xd32	; 0xd32 <lcd_set_string>
		  lcd_set_string("*-Отмена",0,7);
    1374:	47 e0       	ldi	r20, 0x07	; 7
    1376:	60 e0       	ldi	r22, 0x00	; 0
    1378:	89 e8       	ldi	r24, 0x89	; 137
    137a:	92 e0       	ldi	r25, 0x02	; 2
    137c:	0e 94 99 06 	call	0xd32	; 0xd32 <lcd_set_string>
		  duble_open=0;
    1380:	10 92 d3 06 	sts	0x06D3, r1	; 0x8006d3 <duble_open>
	  }
	  update=0;
    1384:	10 92 e8 06 	sts	0x06E8, r1	; 0x8006e8 <update>
	}
	if(lcd_bufer[0]!=sistem_mode)update=1;
    1388:	90 91 ed 06 	lds	r25, 0x06ED	; 0x8006ed <lcd_bufer>
    138c:	80 91 69 02 	lds	r24, 0x0269	; 0x800269 <sistem_mode>
    1390:	98 17       	cp	r25, r24
    1392:	19 f0       	breq	.+6      	; 0x139a <EMZ_info+0x214>
    1394:	81 e0       	ldi	r24, 0x01	; 1
    1396:	80 93 e8 06 	sts	0x06E8, r24	; 0x8006e8 <update>
	if(lcd_bufer[1]!=EMZ.status[EMZ_num])update=1;
    139a:	30 91 ee 06 	lds	r19, 0x06EE	; 0x8006ee <lcd_bufer+0x1>
    139e:	8c 2f       	mov	r24, r28
    13a0:	90 e0       	ldi	r25, 0x00	; 0
    13a2:	fc 01       	movw	r30, r24
    13a4:	e0 50       	subi	r30, 0x00	; 0
    13a6:	ff 4f       	sbci	r31, 0xFF	; 255
    13a8:	20 81       	ld	r18, Z
    13aa:	32 17       	cp	r19, r18
    13ac:	19 f0       	breq	.+6      	; 0x13b4 <EMZ_info+0x22e>
    13ae:	31 e0       	ldi	r19, 0x01	; 1
    13b0:	30 93 e8 06 	sts	0x06E8, r19	; 0x8006e8 <update>
	if(lcd_bufer[2]!=EMZ.cap[EMZ_num])update=1;
    13b4:	40 91 ef 06 	lds	r20, 0x06EF	; 0x8006ef <lcd_bufer+0x2>
    13b8:	fc 01       	movw	r30, r24
    13ba:	e0 56       	subi	r30, 0x60	; 96
    13bc:	fe 4f       	sbci	r31, 0xFE	; 254
    13be:	30 81       	ld	r19, Z
    13c0:	43 17       	cp	r20, r19
    13c2:	19 f0       	breq	.+6      	; 0x13ca <EMZ_info+0x244>
    13c4:	41 e0       	ldi	r20, 0x01	; 1
    13c6:	40 93 e8 06 	sts	0x06E8, r20	; 0x8006e8 <update>
	if(lcd_bufer[3]!=DPNK_BLOCK)update=1;
    13ca:	50 91 f0 06 	lds	r21, 0x06F0	; 0x8006f0 <lcd_bufer+0x3>
    13ce:	40 91 65 02 	lds	r20, 0x0265	; 0x800265 <DPNK_BLOCK>
    13d2:	54 17       	cp	r21, r20
    13d4:	19 f0       	breq	.+6      	; 0x13dc <EMZ_info+0x256>
    13d6:	41 e0       	ldi	r20, 0x01	; 1
    13d8:	40 93 e8 06 	sts	0x06E8, r20	; 0x8006e8 <update>
	if(BUT_FIX==1){
    13dc:	40 91 ea 06 	lds	r20, 0x06EA	; 0x8006ea <BUT_FIX>
    13e0:	41 30       	cpi	r20, 0x01	; 1
    13e2:	09 f0       	breq	.+2      	; 0x13e6 <EMZ_info+0x260>
    13e4:	4e c0       	rjmp	.+156    	; 0x1482 <EMZ_info+0x2fc>
		switch(BUTTON){
    13e6:	40 91 68 02 	lds	r20, 0x0268	; 0x800268 <BUTTON>
    13ea:	4a 30       	cpi	r20, 0x0A	; 10
    13ec:	19 f0       	breq	.+6      	; 0x13f4 <EMZ_info+0x26e>
    13ee:	4b 30       	cpi	r20, 0x0B	; 11
    13f0:	49 f0       	breq	.+18     	; 0x1404 <EMZ_info+0x27e>
    13f2:	32 c0       	rjmp	.+100    	; 0x1458 <EMZ_info+0x2d2>
			case 10:page=0;big_digit_1=10;big_digit_2=10;break;
    13f4:	10 92 e9 06 	sts	0x06E9, r1	; 0x8006e9 <page>
    13f8:	8a e0       	ldi	r24, 0x0A	; 10
    13fa:	80 93 67 02 	sts	0x0267, r24	; 0x800267 <big_digit_1>
    13fe:	80 93 66 02 	sts	0x0266, r24	; 0x800266 <big_digit_2>
    1402:	39 c0       	rjmp	.+114    	; 0x1476 <EMZ_info+0x2f0>
			case 11:
				if(EMZ.status[EMZ_num]==BLOCK){
    1404:	22 34       	cpi	r18, 0x42	; 66
    1406:	b9 f5       	brne	.+110    	; 0x1476 <EMZ_info+0x2f0>
					if(EMZ.cap[EMZ_num]==FULL){
    1408:	36 34       	cpi	r19, 0x46	; 70
    140a:	a9 f5       	brne	.+106    	; 0x1476 <EMZ_info+0x2f0>
						if(sistem_mode==1){
    140c:	20 91 69 02 	lds	r18, 0x0269	; 0x800269 <sistem_mode>
    1410:	21 30       	cpi	r18, 0x01	; 1
    1412:	a9 f4       	brne	.+42     	; 0x143e <EMZ_info+0x2b8>
							if(PU_mode==DPNK){
    1414:	80 91 eb 06 	lds	r24, 0x06EB	; 0x8006eb <PU_mode>
    1418:	81 30       	cpi	r24, 0x01	; 1
    141a:	69 f5       	brne	.+90     	; 0x1476 <EMZ_info+0x2f0>
								if(DPNK_BLOCK==OPEN){
    141c:	80 91 65 02 	lds	r24, 0x0265	; 0x800265 <DPNK_BLOCK>
    1420:	8f 34       	cpi	r24, 0x4F	; 79
    1422:	49 f4       	brne	.+18     	; 0x1436 <EMZ_info+0x2b0>
									open_EMZ=EMZ_num;
    1424:	c0 93 64 02 	sts	0x0264, r28	; 0x800264 <open_EMZ>
									send_EMZ=1;
    1428:	81 e0       	ldi	r24, 0x01	; 1
    142a:	80 93 cf 06 	sts	0x06CF, r24	; 0x8006cf <send_EMZ>
									DPNK_BLOCK=BLOCK;
    142e:	82 e4       	ldi	r24, 0x42	; 66
    1430:	80 93 65 02 	sts	0x0265, r24	; 0x800265 <DPNK_BLOCK>
    1434:	20 c0       	rjmp	.+64     	; 0x1476 <EMZ_info+0x2f0>
								}
								else{
									duble_open=1;
    1436:	81 e0       	ldi	r24, 0x01	; 1
    1438:	80 93 d3 06 	sts	0x06D3, r24	; 0x8006d3 <duble_open>
    143c:	1c c0       	rjmp	.+56     	; 0x1476 <EMZ_info+0x2f0>
								}
							}
						}
						else {
							if(PU_mode==DK){
    143e:	20 91 eb 06 	lds	r18, 0x06EB	; 0x8006eb <PU_mode>
    1442:	21 11       	cpse	r18, r1
    1444:	18 c0       	rjmp	.+48     	; 0x1476 <EMZ_info+0x2f0>
								if(EMZ.status[EMZ_num]==BLOCK){
									EMZ.out[EMZ_num]=OPEN;
    1446:	fc 01       	movw	r30, r24
    1448:	e0 5c       	subi	r30, 0xC0	; 192
    144a:	fe 4f       	sbci	r31, 0xFE	; 254
    144c:	2f e4       	ldi	r18, 0x4F	; 79
    144e:	20 83       	st	Z, r18
									DPNK_BLOCK=BLOCK;
    1450:	82 e4       	ldi	r24, 0x42	; 66
    1452:	80 93 65 02 	sts	0x0265, r24	; 0x800265 <DPNK_BLOCK>
    1456:	0f c0       	rjmp	.+30     	; 0x1476 <EMZ_info+0x2f0>
							}
						}
					}
				}
				break;
			default:page=1;big_digit_1=BUTTON;big_digit_2=10;BUT_FIX=2;update=1;break;
    1458:	81 e0       	ldi	r24, 0x01	; 1
    145a:	80 93 e9 06 	sts	0x06E9, r24	; 0x8006e9 <page>
    145e:	90 91 68 02 	lds	r25, 0x0268	; 0x800268 <BUTTON>
    1462:	90 93 67 02 	sts	0x0267, r25	; 0x800267 <big_digit_1>
    1466:	9a e0       	ldi	r25, 0x0A	; 10
    1468:	90 93 66 02 	sts	0x0266, r25	; 0x800266 <big_digit_2>
    146c:	92 e0       	ldi	r25, 0x02	; 2
    146e:	90 93 ea 06 	sts	0x06EA, r25	; 0x8006ea <BUT_FIX>
    1472:	80 93 e8 06 	sts	0x06E8, r24	; 0x8006e8 <update>
		}
		BUT_FIX=2;
    1476:	82 e0       	ldi	r24, 0x02	; 2
    1478:	80 93 ea 06 	sts	0x06EA, r24	; 0x8006ea <BUT_FIX>
		update=1;
    147c:	81 e0       	ldi	r24, 0x01	; 1
    147e:	80 93 e8 06 	sts	0x06E8, r24	; 0x8006e8 <update>
	}
}
    1482:	cf 91       	pop	r28
    1484:	1f 91       	pop	r17
    1486:	0f 91       	pop	r16
    1488:	08 95       	ret

0000148a <Set_password>:
															//ввод пароля page=2
void Set_password(){
    148a:	1f 93       	push	r17
    148c:	cf 93       	push	r28
    148e:	df 93       	push	r29
	if(update){
    1490:	80 91 e8 06 	lds	r24, 0x06E8	; 0x8006e8 <update>
    1494:	88 23       	and	r24, r24
    1496:	69 f1       	breq	.+90     	; 0x14f2 <Set_password+0x68>
		lcd_clean();
    1498:	0e 94 36 06 	call	0xc6c	; 0xc6c <lcd_clean>
		lcd_set_string("Введите пароль",21,2);
    149c:	42 e0       	ldi	r20, 0x02	; 2
    149e:	65 e1       	ldi	r22, 0x15	; 21
    14a0:	83 e0       	ldi	r24, 0x03	; 3
    14a2:	93 e0       	ldi	r25, 0x03	; 3
    14a4:	0e 94 99 06 	call	0xd32	; 0xd32 <lcd_set_string>
    14a8:	1a e2       	ldi	r17, 0x2A	; 42
    14aa:	c0 e0       	ldi	r28, 0x00	; 0
    14ac:	d0 e0       	ldi	r29, 0x00	; 0
		for(uint8_t i=0;i<4;i++){
			if(bufer_password[i]>9)lcd_set_ch('*',42+(12*i),4);
    14ae:	fe 01       	movw	r30, r28
    14b0:	e0 5a       	subi	r30, 0xA0	; 160
    14b2:	fd 4f       	sbci	r31, 0xFD	; 253
    14b4:	80 81       	ld	r24, Z
    14b6:	8a 30       	cpi	r24, 0x0A	; 10
    14b8:	30 f0       	brcs	.+12     	; 0x14c6 <Set_password+0x3c>
    14ba:	44 e0       	ldi	r20, 0x04	; 4
    14bc:	61 2f       	mov	r22, r17
    14be:	8a e2       	ldi	r24, 0x2A	; 42
    14c0:	0e 94 4e 06 	call	0xc9c	; 0xc9c <lcd_set_ch>
    14c4:	09 c0       	rjmp	.+18     	; 0x14d8 <Set_password+0x4e>
			else lcd_set_ch(bufer_password[i]+0x30,42+(12*i),4);
    14c6:	fe 01       	movw	r30, r28
    14c8:	e0 5a       	subi	r30, 0xA0	; 160
    14ca:	fd 4f       	sbci	r31, 0xFD	; 253
    14cc:	80 81       	ld	r24, Z
    14ce:	44 e0       	ldi	r20, 0x04	; 4
    14d0:	61 2f       	mov	r22, r17
    14d2:	80 5d       	subi	r24, 0xD0	; 208
    14d4:	0e 94 4e 06 	call	0xc9c	; 0xc9c <lcd_set_ch>
    14d8:	21 96       	adiw	r28, 0x01	; 1
    14da:	14 5f       	subi	r17, 0xF4	; 244
															//ввод пароля page=2
void Set_password(){
	if(update){
		lcd_clean();
		lcd_set_string("Введите пароль",21,2);
		for(uint8_t i=0;i<4;i++){
    14dc:	c4 30       	cpi	r28, 0x04	; 4
    14de:	d1 05       	cpc	r29, r1
    14e0:	31 f7       	brne	.-52     	; 0x14ae <Set_password+0x24>
			if(bufer_password[i]>9)lcd_set_ch('*',42+(12*i),4);
			else lcd_set_ch(bufer_password[i]+0x30,42+(12*i),4);
		}
		//lcd_set_string("*-Отмена",0,7);
		//lcd_set_string("Заблокирован",27,6);
		lcd_set_string("*-Отмена       #-Ввод",0,7);
    14e2:	47 e0       	ldi	r20, 0x07	; 7
    14e4:	60 e0       	ldi	r22, 0x00	; 0
    14e6:	82 e1       	ldi	r24, 0x12	; 18
    14e8:	93 e0       	ldi	r25, 0x03	; 3
    14ea:	0e 94 99 06 	call	0xd32	; 0xd32 <lcd_set_string>
		update=0;
    14ee:	10 92 e8 06 	sts	0x06E8, r1	; 0x8006e8 <update>
	}
	if(BUT_FIX==1){
    14f2:	80 91 ea 06 	lds	r24, 0x06EA	; 0x8006ea <BUT_FIX>
    14f6:	81 30       	cpi	r24, 0x01	; 1
    14f8:	09 f0       	breq	.+2      	; 0x14fc <Set_password+0x72>
    14fa:	f4 c0       	rjmp	.+488    	; 0x16e4 <Set_password+0x25a>
		switch(BUTTON){
    14fc:	80 91 68 02 	lds	r24, 0x0268	; 0x800268 <BUTTON>
    1500:	8a 30       	cpi	r24, 0x0A	; 10
    1502:	19 f0       	breq	.+6      	; 0x150a <Set_password+0x80>
    1504:	8b 30       	cpi	r24, 0x0B	; 11
    1506:	59 f0       	breq	.+22     	; 0x151e <Set_password+0x94>
    1508:	c4 c0       	rjmp	.+392    	; 0x1692 <Set_password+0x208>
			case 10:
				page=0;
    150a:	10 92 e9 06 	sts	0x06E9, r1	; 0x8006e9 <page>
				bufer_password[0]=10;
    150e:	e0 e6       	ldi	r30, 0x60	; 96
    1510:	f2 e0       	ldi	r31, 0x02	; 2
    1512:	8a e0       	ldi	r24, 0x0A	; 10
    1514:	80 83       	st	Z, r24
				bufer_password[1]=10;
    1516:	81 83       	std	Z+1, r24	; 0x01
				bufer_password[2]=10;
    1518:	82 83       	std	Z+2, r24	; 0x02
				bufer_password[3]=10;
    151a:	83 83       	std	Z+3, r24	; 0x03
				break;
    151c:	dd c0       	rjmp	.+442    	; 0x16d8 <Set_password+0x24e>
			case 11:
				if(reset_password<10){
    151e:	80 91 d7 06 	lds	r24, 0x06D7	; 0x8006d7 <reset_password>
    1522:	8a 30       	cpi	r24, 0x0A	; 10
    1524:	08 f0       	brcs	.+2      	; 0x1528 <Set_password+0x9e>
    1526:	75 c0       	rjmp	.+234    	; 0x1612 <Set_password+0x188>
					if((bufer_password[0]==10)&&(bufer_password[1]==10)&&(bufer_password[2]==10)&&(bufer_password[3]==10)){
    1528:	80 91 60 02 	lds	r24, 0x0260	; 0x800260 <bufer_password>
    152c:	8a 30       	cpi	r24, 0x0A	; 10
    152e:	b1 f4       	brne	.+44     	; 0x155c <Set_password+0xd2>
    1530:	80 91 61 02 	lds	r24, 0x0261	; 0x800261 <bufer_password+0x1>
    1534:	8a 30       	cpi	r24, 0x0A	; 10
    1536:	91 f4       	brne	.+36     	; 0x155c <Set_password+0xd2>
    1538:	80 91 62 02 	lds	r24, 0x0262	; 0x800262 <bufer_password+0x2>
    153c:	8a 30       	cpi	r24, 0x0A	; 10
    153e:	71 f4       	brne	.+28     	; 0x155c <Set_password+0xd2>
    1540:	80 91 63 02 	lds	r24, 0x0263	; 0x800263 <bufer_password+0x3>
    1544:	8a 30       	cpi	r24, 0x0A	; 10
    1546:	51 f4       	brne	.+20     	; 0x155c <Set_password+0xd2>
						if(PU_mode==DK)reset_password++;
    1548:	80 91 eb 06 	lds	r24, 0x06EB	; 0x8006eb <PU_mode>
    154c:	81 11       	cpse	r24, r1
    154e:	99 c0       	rjmp	.+306    	; 0x1682 <Set_password+0x1f8>
    1550:	80 91 d7 06 	lds	r24, 0x06D7	; 0x8006d7 <reset_password>
    1554:	8f 5f       	subi	r24, 0xFF	; 255
    1556:	80 93 d7 06 	sts	0x06D7, r24	; 0x8006d7 <reset_password>
    155a:	93 c0       	rjmp	.+294    	; 0x1682 <Set_password+0x1f8>
					}
					else{
						if(PU_mode){
    155c:	80 91 eb 06 	lds	r24, 0x06EB	; 0x8006eb <PU_mode>
    1560:	88 23       	and	r24, r24
    1562:	39 f1       	breq	.+78     	; 0x15b2 <Set_password+0x128>
							if((bufer_password[0]==user_password[0])&&(bufer_password[1]==user_password[1])&&(bufer_password[2]==user_password[2])&&(bufer_password[3]==user_password[3])){
    1564:	90 91 60 02 	lds	r25, 0x0260	; 0x800260 <bufer_password>
    1568:	80 91 dc 06 	lds	r24, 0x06DC	; 0x8006dc <user_password>
    156c:	98 13       	cpse	r25, r24
    156e:	18 c0       	rjmp	.+48     	; 0x15a0 <Set_password+0x116>
    1570:	90 91 61 02 	lds	r25, 0x0261	; 0x800261 <bufer_password+0x1>
    1574:	80 91 dd 06 	lds	r24, 0x06DD	; 0x8006dd <user_password+0x1>
    1578:	98 13       	cpse	r25, r24
    157a:	12 c0       	rjmp	.+36     	; 0x15a0 <Set_password+0x116>
    157c:	90 91 62 02 	lds	r25, 0x0262	; 0x800262 <bufer_password+0x2>
    1580:	80 91 de 06 	lds	r24, 0x06DE	; 0x8006de <user_password+0x2>
    1584:	98 13       	cpse	r25, r24
    1586:	0c c0       	rjmp	.+24     	; 0x15a0 <Set_password+0x116>
    1588:	90 91 63 02 	lds	r25, 0x0263	; 0x800263 <bufer_password+0x3>
    158c:	80 91 df 06 	lds	r24, 0x06DF	; 0x8006df <user_password+0x3>
    1590:	98 13       	cpse	r25, r24
    1592:	06 c0       	rjmp	.+12     	; 0x15a0 <Set_password+0x116>
								page=6;
    1594:	86 e0       	ldi	r24, 0x06	; 6
    1596:	80 93 e9 06 	sts	0x06E9, r24	; 0x8006e9 <page>
								password_error=0;
    159a:	10 92 d5 06 	sts	0x06D5, r1	; 0x8006d5 <password_error>
    159e:	2f c0       	rjmp	.+94     	; 0x15fe <Set_password+0x174>
							}
							else{
								page=22;
    15a0:	86 e1       	ldi	r24, 0x16	; 22
    15a2:	80 93 e9 06 	sts	0x06E9, r24	; 0x8006e9 <page>
								password_error++;
    15a6:	80 91 d5 06 	lds	r24, 0x06D5	; 0x8006d5 <password_error>
    15aa:	8f 5f       	subi	r24, 0xFF	; 255
    15ac:	80 93 d5 06 	sts	0x06D5, r24	; 0x8006d5 <password_error>
    15b0:	26 c0       	rjmp	.+76     	; 0x15fe <Set_password+0x174>
							}
						}
						else{
							if((bufer_password[0]==admin_password[0])&&(bufer_password[1]==admin_password[1])&&(bufer_password[2]==admin_password[2])&&(bufer_password[3]==admin_password[3])){
    15b2:	90 91 60 02 	lds	r25, 0x0260	; 0x800260 <bufer_password>
    15b6:	80 91 d8 06 	lds	r24, 0x06D8	; 0x8006d8 <admin_password>
    15ba:	98 13       	cpse	r25, r24
    15bc:	18 c0       	rjmp	.+48     	; 0x15ee <Set_password+0x164>
    15be:	90 91 61 02 	lds	r25, 0x0261	; 0x800261 <bufer_password+0x1>
    15c2:	80 91 d9 06 	lds	r24, 0x06D9	; 0x8006d9 <admin_password+0x1>
    15c6:	98 13       	cpse	r25, r24
    15c8:	12 c0       	rjmp	.+36     	; 0x15ee <Set_password+0x164>
    15ca:	90 91 62 02 	lds	r25, 0x0262	; 0x800262 <bufer_password+0x2>
    15ce:	80 91 da 06 	lds	r24, 0x06DA	; 0x8006da <admin_password+0x2>
    15d2:	98 13       	cpse	r25, r24
    15d4:	0c c0       	rjmp	.+24     	; 0x15ee <Set_password+0x164>
    15d6:	90 91 63 02 	lds	r25, 0x0263	; 0x800263 <bufer_password+0x3>
    15da:	80 91 db 06 	lds	r24, 0x06DB	; 0x8006db <admin_password+0x3>
    15de:	98 13       	cpse	r25, r24
    15e0:	06 c0       	rjmp	.+12     	; 0x15ee <Set_password+0x164>
								page=4;
    15e2:	84 e0       	ldi	r24, 0x04	; 4
    15e4:	80 93 e9 06 	sts	0x06E9, r24	; 0x8006e9 <page>
								password_error=0;
    15e8:	10 92 d5 06 	sts	0x06D5, r1	; 0x8006d5 <password_error>
    15ec:	08 c0       	rjmp	.+16     	; 0x15fe <Set_password+0x174>
							}
							else{
								page=22;
    15ee:	86 e1       	ldi	r24, 0x16	; 22
    15f0:	80 93 e9 06 	sts	0x06E9, r24	; 0x8006e9 <page>
								password_error++;
    15f4:	80 91 d5 06 	lds	r24, 0x06D5	; 0x8006d5 <password_error>
    15f8:	8f 5f       	subi	r24, 0xFF	; 255
    15fa:	80 93 d5 06 	sts	0x06D5, r24	; 0x8006d5 <password_error>
							}
						}
						bufer_password[0]=10;
    15fe:	e0 e6       	ldi	r30, 0x60	; 96
    1600:	f2 e0       	ldi	r31, 0x02	; 2
    1602:	8a e0       	ldi	r24, 0x0A	; 10
    1604:	80 83       	st	Z, r24
						bufer_password[1]=10;
    1606:	81 83       	std	Z+1, r24	; 0x01
						bufer_password[2]=10;
    1608:	82 83       	std	Z+2, r24	; 0x02
						bufer_password[3]=10;
    160a:	83 83       	std	Z+3, r24	; 0x03
						reset_password=0;
    160c:	10 92 d7 06 	sts	0x06D7, r1	; 0x8006d7 <reset_password>
    1610:	38 c0       	rjmp	.+112    	; 0x1682 <Set_password+0x1f8>
					}
				}
				else{
					page=21;
    1612:	85 e1       	ldi	r24, 0x15	; 21
    1614:	80 93 e9 06 	sts	0x06E9, r24	; 0x8006e9 <page>
					bufer_password[0]=10;
    1618:	e0 e6       	ldi	r30, 0x60	; 96
    161a:	f2 e0       	ldi	r31, 0x02	; 2
    161c:	8a e0       	ldi	r24, 0x0A	; 10
    161e:	80 83       	st	Z, r24
					bufer_password[1]=10;
    1620:	81 83       	std	Z+1, r24	; 0x01
					bufer_password[2]=10;
    1622:	82 83       	std	Z+2, r24	; 0x02
					bufer_password[3]=10;
    1624:	83 83       	std	Z+3, r24	; 0x03
					admin_password[0]=0;
    1626:	e8 ed       	ldi	r30, 0xD8	; 216
    1628:	f6 e0       	ldi	r31, 0x06	; 6
    162a:	10 82       	st	Z, r1
					admin_password[1]=0;
    162c:	11 82       	std	Z+1, r1	; 0x01
					admin_password[2]=0;
    162e:	12 82       	std	Z+2, r1	; 0x02
					admin_password[3]=0;
    1630:	13 82       	std	Z+3, r1	; 0x03
					user_password[0]=0;
    1632:	ec ed       	ldi	r30, 0xDC	; 220
    1634:	f6 e0       	ldi	r31, 0x06	; 6
    1636:	10 82       	st	Z, r1
					user_password[1]=0;
    1638:	11 82       	std	Z+1, r1	; 0x01
					user_password[2]=0;
    163a:	12 82       	std	Z+2, r1	; 0x02
					user_password[3]=0;
    163c:	13 82       	std	Z+3, r1	; 0x03
					write_eeprom(0x50,0);
    163e:	60 e0       	ldi	r22, 0x00	; 0
    1640:	80 e5       	ldi	r24, 0x50	; 80
    1642:	0e 94 43 07 	call	0xe86	; 0xe86 <write_eeprom>
					write_eeprom(0x51,0);
    1646:	60 e0       	ldi	r22, 0x00	; 0
    1648:	81 e5       	ldi	r24, 0x51	; 81
    164a:	0e 94 43 07 	call	0xe86	; 0xe86 <write_eeprom>
					write_eeprom(0x52,0);
    164e:	60 e0       	ldi	r22, 0x00	; 0
    1650:	82 e5       	ldi	r24, 0x52	; 82
    1652:	0e 94 43 07 	call	0xe86	; 0xe86 <write_eeprom>
					write_eeprom(0x53,0);
    1656:	60 e0       	ldi	r22, 0x00	; 0
    1658:	83 e5       	ldi	r24, 0x53	; 83
    165a:	0e 94 43 07 	call	0xe86	; 0xe86 <write_eeprom>
					write_eeprom(0x60,0);
    165e:	60 e0       	ldi	r22, 0x00	; 0
    1660:	80 e6       	ldi	r24, 0x60	; 96
    1662:	0e 94 43 07 	call	0xe86	; 0xe86 <write_eeprom>
					write_eeprom(0x61,0);
    1666:	60 e0       	ldi	r22, 0x00	; 0
    1668:	81 e6       	ldi	r24, 0x61	; 97
    166a:	0e 94 43 07 	call	0xe86	; 0xe86 <write_eeprom>
					write_eeprom(0x62,0);
    166e:	60 e0       	ldi	r22, 0x00	; 0
    1670:	82 e6       	ldi	r24, 0x62	; 98
    1672:	0e 94 43 07 	call	0xe86	; 0xe86 <write_eeprom>
					write_eeprom(0x63,0);
    1676:	60 e0       	ldi	r22, 0x00	; 0
    1678:	83 e6       	ldi	r24, 0x63	; 99
    167a:	0e 94 43 07 	call	0xe86	; 0xe86 <write_eeprom>
					reset_password=0;
    167e:	10 92 d7 06 	sts	0x06D7, r1	; 0x8006d7 <reset_password>
				}
				if(password_error==5)page=10;
    1682:	80 91 d5 06 	lds	r24, 0x06D5	; 0x8006d5 <password_error>
    1686:	85 30       	cpi	r24, 0x05	; 5
    1688:	39 f5       	brne	.+78     	; 0x16d8 <Set_password+0x24e>
    168a:	8a e0       	ldi	r24, 0x0A	; 10
    168c:	80 93 e9 06 	sts	0x06E9, r24	; 0x8006e9 <page>
    1690:	23 c0       	rjmp	.+70     	; 0x16d8 <Set_password+0x24e>
				break;
			default:
				if(bufer_password[0]==10)bufer_password[0]=BUTTON;
    1692:	80 91 60 02 	lds	r24, 0x0260	; 0x800260 <bufer_password>
    1696:	8a 30       	cpi	r24, 0x0A	; 10
    1698:	29 f4       	brne	.+10     	; 0x16a4 <Set_password+0x21a>
    169a:	80 91 68 02 	lds	r24, 0x0268	; 0x800268 <BUTTON>
    169e:	80 93 60 02 	sts	0x0260, r24	; 0x800260 <bufer_password>
    16a2:	1a c0       	rjmp	.+52     	; 0x16d8 <Set_password+0x24e>
				else if(bufer_password[1]==10)bufer_password[1]=BUTTON;
    16a4:	80 91 61 02 	lds	r24, 0x0261	; 0x800261 <bufer_password+0x1>
    16a8:	8a 30       	cpi	r24, 0x0A	; 10
    16aa:	29 f4       	brne	.+10     	; 0x16b6 <Set_password+0x22c>
    16ac:	80 91 68 02 	lds	r24, 0x0268	; 0x800268 <BUTTON>
    16b0:	80 93 61 02 	sts	0x0261, r24	; 0x800261 <bufer_password+0x1>
    16b4:	11 c0       	rjmp	.+34     	; 0x16d8 <Set_password+0x24e>
				else if(bufer_password[2]==10)bufer_password[2]=BUTTON;
    16b6:	80 91 62 02 	lds	r24, 0x0262	; 0x800262 <bufer_password+0x2>
    16ba:	8a 30       	cpi	r24, 0x0A	; 10
    16bc:	29 f4       	brne	.+10     	; 0x16c8 <Set_password+0x23e>
    16be:	80 91 68 02 	lds	r24, 0x0268	; 0x800268 <BUTTON>
    16c2:	80 93 62 02 	sts	0x0262, r24	; 0x800262 <bufer_password+0x2>
    16c6:	08 c0       	rjmp	.+16     	; 0x16d8 <Set_password+0x24e>
				else if(bufer_password[3]==10)bufer_password[3]=BUTTON;
    16c8:	80 91 63 02 	lds	r24, 0x0263	; 0x800263 <bufer_password+0x3>
    16cc:	8a 30       	cpi	r24, 0x0A	; 10
    16ce:	21 f4       	brne	.+8      	; 0x16d8 <Set_password+0x24e>
    16d0:	80 91 68 02 	lds	r24, 0x0268	; 0x800268 <BUTTON>
    16d4:	80 93 63 02 	sts	0x0263, r24	; 0x800263 <bufer_password+0x3>
				break;
		}
		BUT_FIX=2;
    16d8:	82 e0       	ldi	r24, 0x02	; 2
    16da:	80 93 ea 06 	sts	0x06EA, r24	; 0x8006ea <BUT_FIX>
		update=1;
    16de:	81 e0       	ldi	r24, 0x01	; 1
    16e0:	80 93 e8 06 	sts	0x06E8, r24	; 0x8006e8 <update>
	}
	
}
    16e4:	df 91       	pop	r29
    16e6:	cf 91       	pop	r28
    16e8:	1f 91       	pop	r17
    16ea:	08 95       	ret

000016ec <Set_sistem_mode>:
							//переключение режима работы системы page=6
void Set_sistem_mode(){
	if(update){
    16ec:	80 91 e8 06 	lds	r24, 0x06E8	; 0x8006e8 <update>
    16f0:	88 23       	and	r24, r24
    16f2:	99 f1       	breq	.+102    	; 0x175a <Set_sistem_mode+0x6e>
		lcd_clean();
    16f4:	0e 94 36 06 	call	0xc6c	; 0xc6c <lcd_clean>
		if(sistem_mode==1){
    16f8:	80 91 69 02 	lds	r24, 0x0269	; 0x800269 <sistem_mode>
    16fc:	81 30       	cpi	r24, 0x01	; 1
    16fe:	99 f4       	brne	.+38     	; 0x1726 <Set_sistem_mode+0x3a>
			lcd_set_string("Режим 1",42,0);
    1700:	40 e0       	ldi	r20, 0x00	; 0
    1702:	6a e2       	ldi	r22, 0x2A	; 42
    1704:	89 e7       	ldi	r24, 0x79	; 121
    1706:	92 e0       	ldi	r25, 0x02	; 2
    1708:	0e 94 99 06 	call	0xd32	; 0xd32 <lcd_set_string>
			lcd_set_string("Включить",39,2);
    170c:	42 e0       	ldi	r20, 0x02	; 2
    170e:	67 e2       	ldi	r22, 0x27	; 39
    1710:	83 ea       	ldi	r24, 0xA3	; 163
    1712:	94 e0       	ldi	r25, 0x04	; 4
    1714:	0e 94 99 06 	call	0xd32	; 0xd32 <lcd_set_string>
			lcd_set_string("режим 2?",39,4);
    1718:	44 e0       	ldi	r20, 0x04	; 4
    171a:	67 e2       	ldi	r22, 0x27	; 39
    171c:	88 e2       	ldi	r24, 0x28	; 40
    171e:	93 e0       	ldi	r25, 0x03	; 3
    1720:	0e 94 99 06 	call	0xd32	; 0xd32 <lcd_set_string>
    1724:	12 c0       	rjmp	.+36     	; 0x174a <Set_sistem_mode+0x5e>
		}
		else{
			lcd_set_string("Режим 2",42,0);
    1726:	40 e0       	ldi	r20, 0x00	; 0
    1728:	6a e2       	ldi	r22, 0x2A	; 42
    172a:	81 e8       	ldi	r24, 0x81	; 129
    172c:	92 e0       	ldi	r25, 0x02	; 2
    172e:	0e 94 99 06 	call	0xd32	; 0xd32 <lcd_set_string>
			lcd_set_string("Включить",39,2);
    1732:	42 e0       	ldi	r20, 0x02	; 2
    1734:	67 e2       	ldi	r22, 0x27	; 39
    1736:	83 ea       	ldi	r24, 0xA3	; 163
    1738:	94 e0       	ldi	r25, 0x04	; 4
    173a:	0e 94 99 06 	call	0xd32	; 0xd32 <lcd_set_string>
			lcd_set_string("режим 1?",39,4);
    173e:	44 e0       	ldi	r20, 0x04	; 4
    1740:	67 e2       	ldi	r22, 0x27	; 39
    1742:	81 e3       	ldi	r24, 0x31	; 49
    1744:	93 e0       	ldi	r25, 0x03	; 3
    1746:	0e 94 99 06 	call	0xd32	; 0xd32 <lcd_set_string>
		}
		lcd_set_string("*-Нет            #-Да",0,7);
    174a:	47 e0       	ldi	r20, 0x07	; 7
    174c:	60 e0       	ldi	r22, 0x00	; 0
    174e:	8a e3       	ldi	r24, 0x3A	; 58
    1750:	93 e0       	ldi	r25, 0x03	; 3
    1752:	0e 94 99 06 	call	0xd32	; 0xd32 <lcd_set_string>
		update=0;
    1756:	10 92 e8 06 	sts	0x06E8, r1	; 0x8006e8 <update>
	}
	if(BUT_FIX==1){
    175a:	80 91 ea 06 	lds	r24, 0x06EA	; 0x8006ea <BUT_FIX>
    175e:	81 30       	cpi	r24, 0x01	; 1
    1760:	29 f5       	brne	.+74     	; 0x17ac <Set_sistem_mode+0xc0>
		if(BUTTON==10){
    1762:	80 91 68 02 	lds	r24, 0x0268	; 0x800268 <BUTTON>
    1766:	8a 30       	cpi	r24, 0x0A	; 10
    1768:	31 f4       	brne	.+12     	; 0x1776 <Set_sistem_mode+0x8a>
			page=0;
    176a:	10 92 e9 06 	sts	0x06E9, r1	; 0x8006e9 <page>
			update=1;
    176e:	81 e0       	ldi	r24, 0x01	; 1
    1770:	80 93 e8 06 	sts	0x06E8, r24	; 0x8006e8 <update>
    1774:	18 c0       	rjmp	.+48     	; 0x17a6 <Set_sistem_mode+0xba>
		}
		else if(BUTTON==11){
    1776:	80 91 68 02 	lds	r24, 0x0268	; 0x800268 <BUTTON>
    177a:	8b 30       	cpi	r24, 0x0B	; 11
    177c:	a1 f4       	brne	.+40     	; 0x17a6 <Set_sistem_mode+0xba>
			page=0;
    177e:	10 92 e9 06 	sts	0x06E9, r1	; 0x8006e9 <page>
			if(sistem_mode==1)sistem_mode=2;
    1782:	80 91 69 02 	lds	r24, 0x0269	; 0x800269 <sistem_mode>
    1786:	81 30       	cpi	r24, 0x01	; 1
    1788:	21 f4       	brne	.+8      	; 0x1792 <Set_sistem_mode+0xa6>
    178a:	82 e0       	ldi	r24, 0x02	; 2
    178c:	80 93 69 02 	sts	0x0269, r24	; 0x800269 <sistem_mode>
    1790:	07 c0       	rjmp	.+14     	; 0x17a0 <Set_sistem_mode+0xb4>
			else if(sistem_mode==2)sistem_mode=1;
    1792:	80 91 69 02 	lds	r24, 0x0269	; 0x800269 <sistem_mode>
    1796:	82 30       	cpi	r24, 0x02	; 2
    1798:	19 f4       	brne	.+6      	; 0x17a0 <Set_sistem_mode+0xb4>
    179a:	81 e0       	ldi	r24, 0x01	; 1
    179c:	80 93 69 02 	sts	0x0269, r24	; 0x800269 <sistem_mode>
			update=1;
    17a0:	81 e0       	ldi	r24, 0x01	; 1
    17a2:	80 93 e8 06 	sts	0x06E8, r24	; 0x8006e8 <update>
		}
		BUT_FIX=2;
    17a6:	82 e0       	ldi	r24, 0x02	; 2
    17a8:	80 93 ea 06 	sts	0x06EA, r24	; 0x8006ea <BUT_FIX>
    17ac:	08 95       	ret

000017ae <Error_password>:
}

									//ошибка ввода пароля page=22

void Error_password(void){
	if(update){
    17ae:	80 91 e8 06 	lds	r24, 0x06E8	; 0x8006e8 <update>
    17b2:	88 23       	and	r24, r24
    17b4:	b1 f0       	breq	.+44     	; 0x17e2 <Error_password+0x34>
		lcd_clean();
    17b6:	0e 94 36 06 	call	0xc6c	; 0xc6c <lcd_clean>
		lcd_set_string("Не верный",36,2);
    17ba:	42 e0       	ldi	r20, 0x02	; 2
    17bc:	64 e2       	ldi	r22, 0x24	; 36
    17be:	80 e5       	ldi	r24, 0x50	; 80
    17c0:	93 e0       	ldi	r25, 0x03	; 3
    17c2:	0e 94 99 06 	call	0xd32	; 0xd32 <lcd_set_string>
		lcd_set_string("пароль",45,4);
    17c6:	44 e0       	ldi	r20, 0x04	; 4
    17c8:	6d e2       	ldi	r22, 0x2D	; 45
    17ca:	8b e0       	ldi	r24, 0x0B	; 11
    17cc:	93 e0       	ldi	r25, 0x03	; 3
    17ce:	0e 94 99 06 	call	0xd32	; 0xd32 <lcd_set_string>
		lcd_set_string("*-Отмена",0,7);
    17d2:	47 e0       	ldi	r20, 0x07	; 7
    17d4:	60 e0       	ldi	r22, 0x00	; 0
    17d6:	89 e8       	ldi	r24, 0x89	; 137
    17d8:	92 e0       	ldi	r25, 0x02	; 2
    17da:	0e 94 99 06 	call	0xd32	; 0xd32 <lcd_set_string>
		update=0;
    17de:	10 92 e8 06 	sts	0x06E8, r1	; 0x8006e8 <update>
	}
	if(BUT_FIX==1){
    17e2:	80 91 ea 06 	lds	r24, 0x06EA	; 0x8006ea <BUT_FIX>
    17e6:	81 30       	cpi	r24, 0x01	; 1
    17e8:	61 f4       	brne	.+24     	; 0x1802 <Error_password+0x54>
		if(BUTTON==10){
    17ea:	80 91 68 02 	lds	r24, 0x0268	; 0x800268 <BUTTON>
    17ee:	8a 30       	cpi	r24, 0x0A	; 10
    17f0:	11 f4       	brne	.+4      	; 0x17f6 <Error_password+0x48>
			page=0;
    17f2:	10 92 e9 06 	sts	0x06E9, r1	; 0x8006e9 <page>
		}
		BUT_FIX=2;
    17f6:	82 e0       	ldi	r24, 0x02	; 2
    17f8:	80 93 ea 06 	sts	0x06EA, r24	; 0x8006ea <BUT_FIX>
		update=1;
    17fc:	81 e0       	ldi	r24, 0x01	; 1
    17fe:	80 93 e8 06 	sts	0x06E8, r24	; 0x8006e8 <update>
    1802:	08 95       	ret

00001804 <Reset_pass>:
	}
}
										//сброс пароля page=21

void Reset_pass(void){
	if(update){
    1804:	80 91 e8 06 	lds	r24, 0x06E8	; 0x8006e8 <update>
    1808:	88 23       	and	r24, r24
    180a:	81 f0       	breq	.+32     	; 0x182c <Reset_pass+0x28>
		lcd_clean();
    180c:	0e 94 36 06 	call	0xc6c	; 0xc6c <lcd_clean>
		lcd_set_string("Пароли сброшены",18,3);
    1810:	43 e0       	ldi	r20, 0x03	; 3
    1812:	62 e1       	ldi	r22, 0x12	; 18
    1814:	8a e5       	ldi	r24, 0x5A	; 90
    1816:	93 e0       	ldi	r25, 0x03	; 3
    1818:	0e 94 99 06 	call	0xd32	; 0xd32 <lcd_set_string>
		lcd_set_string("*-Отмена",0,7);
    181c:	47 e0       	ldi	r20, 0x07	; 7
    181e:	60 e0       	ldi	r22, 0x00	; 0
    1820:	89 e8       	ldi	r24, 0x89	; 137
    1822:	92 e0       	ldi	r25, 0x02	; 2
    1824:	0e 94 99 06 	call	0xd32	; 0xd32 <lcd_set_string>
		update=0;
    1828:	10 92 e8 06 	sts	0x06E8, r1	; 0x8006e8 <update>
	}
	if(BUT_FIX==1){
    182c:	80 91 ea 06 	lds	r24, 0x06EA	; 0x8006ea <BUT_FIX>
    1830:	81 30       	cpi	r24, 0x01	; 1
    1832:	61 f4       	brne	.+24     	; 0x184c <Reset_pass+0x48>
		if(BUTTON==10)page=0;
    1834:	80 91 68 02 	lds	r24, 0x0268	; 0x800268 <BUTTON>
    1838:	8a 30       	cpi	r24, 0x0A	; 10
    183a:	11 f4       	brne	.+4      	; 0x1840 <Reset_pass+0x3c>
    183c:	10 92 e9 06 	sts	0x06E9, r1	; 0x8006e9 <page>
		BUT_FIX=2;
    1840:	82 e0       	ldi	r24, 0x02	; 2
    1842:	80 93 ea 06 	sts	0x06EA, r24	; 0x8006ea <BUT_FIX>
		update=1;
    1846:	81 e0       	ldi	r24, 0x01	; 1
    1848:	80 93 e8 06 	sts	0x06E8, r24	; 0x8006e8 <update>
    184c:	08 95       	ret

0000184e <Seting_menu>:
}


										//настройки page=4
void Seting_menu(void){
	if(update){
    184e:	80 91 e8 06 	lds	r24, 0x06E8	; 0x8006e8 <update>
    1852:	88 23       	and	r24, r24
    1854:	09 f4       	brne	.+2      	; 0x1858 <Seting_menu+0xa>
    1856:	91 c0       	rjmp	.+290    	; 0x197a <Seting_menu+0x12c>
		lcd_clean();
    1858:	0e 94 36 06 	call	0xc6c	; 0xc6c <lcd_clean>
		lcd_set_string("1-Пароль админа",0,0);
    185c:	40 e0       	ldi	r20, 0x00	; 0
    185e:	60 e0       	ldi	r22, 0x00	; 0
    1860:	8a e6       	ldi	r24, 0x6A	; 106
    1862:	93 e0       	ldi	r25, 0x03	; 3
    1864:	0e 94 99 06 	call	0xd32	; 0xd32 <lcd_set_string>
		lcd_set_string("2-Пароль ДПНК",0,1);
    1868:	41 e0       	ldi	r20, 0x01	; 1
    186a:	60 e0       	ldi	r22, 0x00	; 0
    186c:	8a e7       	ldi	r24, 0x7A	; 122
    186e:	93 e0       	ldi	r25, 0x03	; 3
    1870:	0e 94 99 06 	call	0xd32	; 0xd32 <lcd_set_string>
		lcd_set_string("3-Настройка ЭМЗ",0,2);
    1874:	42 e0       	ldi	r20, 0x02	; 2
    1876:	60 e0       	ldi	r22, 0x00	; 0
    1878:	88 e8       	ldi	r24, 0x88	; 136
    187a:	93 e0       	ldi	r25, 0x03	; 3
    187c:	0e 94 99 06 	call	0xd32	; 0xd32 <lcd_set_string>
		lcd_set_string("4-Адресация ЭМЗ",0,3);
    1880:	43 e0       	ldi	r20, 0x03	; 3
    1882:	60 e0       	ldi	r22, 0x00	; 0
    1884:	88 e9       	ldi	r24, 0x98	; 152
    1886:	93 e0       	ldi	r25, 0x03	; 3
    1888:	0e 94 99 06 	call	0xd32	; 0xd32 <lcd_set_string>
		if(!sistem_mode)lcd_set_string("5-Пульт ДПНК откл.",0,4);
    188c:	80 91 69 02 	lds	r24, 0x0269	; 0x800269 <sistem_mode>
    1890:	81 11       	cpse	r24, r1
    1892:	07 c0       	rjmp	.+14     	; 0x18a2 <Seting_menu+0x54>
    1894:	44 e0       	ldi	r20, 0x04	; 4
    1896:	60 e0       	ldi	r22, 0x00	; 0
    1898:	88 ea       	ldi	r24, 0xA8	; 168
    189a:	93 e0       	ldi	r25, 0x03	; 3
    189c:	0e 94 99 06 	call	0xd32	; 0xd32 <lcd_set_string>
    18a0:	06 c0       	rjmp	.+12     	; 0x18ae <Seting_menu+0x60>
		else lcd_set_string("5-Пульт ДПНК подкл.",0,4);
    18a2:	44 e0       	ldi	r20, 0x04	; 4
    18a4:	60 e0       	ldi	r22, 0x00	; 0
    18a6:	8b eb       	ldi	r24, 0xBB	; 187
    18a8:	93 e0       	ldi	r25, 0x03	; 3
    18aa:	0e 94 99 06 	call	0xd32	; 0xd32 <lcd_set_string>
		lcd_set_string("6-Время тревоги",0,5);
    18ae:	45 e0       	ldi	r20, 0x05	; 5
    18b0:	60 e0       	ldi	r22, 0x00	; 0
    18b2:	8f ec       	ldi	r24, 0xCF	; 207
    18b4:	93 e0       	ldi	r25, 0x03	; 3
    18b6:	0e 94 99 06 	call	0xd32	; 0xd32 <lcd_set_string>
		switch(alarm_time){
    18ba:	e0 91 d2 06 	lds	r30, 0x06D2	; 0x8006d2 <alarm_time>
    18be:	8e 2f       	mov	r24, r30
    18c0:	90 e0       	ldi	r25, 0x00	; 0
    18c2:	8a 30       	cpi	r24, 0x0A	; 10
    18c4:	91 05       	cpc	r25, r1
    18c6:	08 f0       	brcs	.+2      	; 0x18ca <Seting_menu+0x7c>
    18c8:	4a c0       	rjmp	.+148    	; 0x195e <Seting_menu+0x110>
    18ca:	fc 01       	movw	r30, r24
    18cc:	e2 5c       	subi	r30, 0xC2	; 194
    18ce:	ff 4f       	sbci	r31, 0xFF	; 255
    18d0:	0c 94 aa 22 	jmp	0x4554	; 0x4554 <__tablejump2__>
			case 0:lcd_set_string("откл.",96,5);break;
    18d4:	45 e0       	ldi	r20, 0x05	; 5
    18d6:	60 e6       	ldi	r22, 0x60	; 96
    18d8:	85 eb       	ldi	r24, 0xB5	; 181
    18da:	93 e0       	ldi	r25, 0x03	; 3
    18dc:	0e 94 99 06 	call	0xd32	; 0xd32 <lcd_set_string>
    18e0:	3e c0       	rjmp	.+124    	; 0x195e <Seting_menu+0x110>
			case 1:lcd_set_string("0,25c",96,5);break;
    18e2:	45 e0       	ldi	r20, 0x05	; 5
    18e4:	60 e6       	ldi	r22, 0x60	; 96
    18e6:	8f ed       	ldi	r24, 0xDF	; 223
    18e8:	93 e0       	ldi	r25, 0x03	; 3
    18ea:	0e 94 99 06 	call	0xd32	; 0xd32 <lcd_set_string>
    18ee:	37 c0       	rjmp	.+110    	; 0x195e <Seting_menu+0x110>
			case 2:lcd_set_string("0,5c",96,5);break;
    18f0:	45 e0       	ldi	r20, 0x05	; 5
    18f2:	60 e6       	ldi	r22, 0x60	; 96
    18f4:	85 ee       	ldi	r24, 0xE5	; 229
    18f6:	93 e0       	ldi	r25, 0x03	; 3
    18f8:	0e 94 99 06 	call	0xd32	; 0xd32 <lcd_set_string>
    18fc:	30 c0       	rjmp	.+96     	; 0x195e <Seting_menu+0x110>
			case 3:lcd_set_string("0,75c",96,5);break;
    18fe:	45 e0       	ldi	r20, 0x05	; 5
    1900:	60 e6       	ldi	r22, 0x60	; 96
    1902:	8a ee       	ldi	r24, 0xEA	; 234
    1904:	93 e0       	ldi	r25, 0x03	; 3
    1906:	0e 94 99 06 	call	0xd32	; 0xd32 <lcd_set_string>
    190a:	29 c0       	rjmp	.+82     	; 0x195e <Seting_menu+0x110>
			case 4:lcd_set_string("1c",96,5);break;
    190c:	45 e0       	ldi	r20, 0x05	; 5
    190e:	60 e6       	ldi	r22, 0x60	; 96
    1910:	80 ef       	ldi	r24, 0xF0	; 240
    1912:	93 e0       	ldi	r25, 0x03	; 3
    1914:	0e 94 99 06 	call	0xd32	; 0xd32 <lcd_set_string>
    1918:	22 c0       	rjmp	.+68     	; 0x195e <Seting_menu+0x110>
			case 5:lcd_set_string("1,25c",96,5);break;
    191a:	45 e0       	ldi	r20, 0x05	; 5
    191c:	60 e6       	ldi	r22, 0x60	; 96
    191e:	83 ef       	ldi	r24, 0xF3	; 243
    1920:	93 e0       	ldi	r25, 0x03	; 3
    1922:	0e 94 99 06 	call	0xd32	; 0xd32 <lcd_set_string>
    1926:	1b c0       	rjmp	.+54     	; 0x195e <Seting_menu+0x110>
			case 6:lcd_set_string("1,5c",96,5);break;
    1928:	45 e0       	ldi	r20, 0x05	; 5
    192a:	60 e6       	ldi	r22, 0x60	; 96
    192c:	89 ef       	ldi	r24, 0xF9	; 249
    192e:	93 e0       	ldi	r25, 0x03	; 3
    1930:	0e 94 99 06 	call	0xd32	; 0xd32 <lcd_set_string>
    1934:	14 c0       	rjmp	.+40     	; 0x195e <Seting_menu+0x110>
			case 7:lcd_set_string("1,75c",96,5);break;
    1936:	45 e0       	ldi	r20, 0x05	; 5
    1938:	60 e6       	ldi	r22, 0x60	; 96
    193a:	8e ef       	ldi	r24, 0xFE	; 254
    193c:	93 e0       	ldi	r25, 0x03	; 3
    193e:	0e 94 99 06 	call	0xd32	; 0xd32 <lcd_set_string>
    1942:	0d c0       	rjmp	.+26     	; 0x195e <Seting_menu+0x110>
			case 8:lcd_set_string("2c",96,5);break;
    1944:	45 e0       	ldi	r20, 0x05	; 5
    1946:	60 e6       	ldi	r22, 0x60	; 96
    1948:	84 e0       	ldi	r24, 0x04	; 4
    194a:	94 e0       	ldi	r25, 0x04	; 4
    194c:	0e 94 99 06 	call	0xd32	; 0xd32 <lcd_set_string>
    1950:	06 c0       	rjmp	.+12     	; 0x195e <Seting_menu+0x110>
			case 9:lcd_set_string("2,25 c",96,5);break;
    1952:	45 e0       	ldi	r20, 0x05	; 5
    1954:	60 e6       	ldi	r22, 0x60	; 96
    1956:	87 e0       	ldi	r24, 0x07	; 7
    1958:	94 e0       	ldi	r25, 0x04	; 4
    195a:	0e 94 99 06 	call	0xd32	; 0xd32 <lcd_set_string>
			default:;
		}
		lcd_set_string("7-Сброс настроек",0,6);
    195e:	46 e0       	ldi	r20, 0x06	; 6
    1960:	60 e0       	ldi	r22, 0x00	; 0
    1962:	8e e0       	ldi	r24, 0x0E	; 14
    1964:	94 e0       	ldi	r25, 0x04	; 4
    1966:	0e 94 99 06 	call	0xd32	; 0xd32 <lcd_set_string>
		lcd_set_string("*-Отмена",0,7);
    196a:	47 e0       	ldi	r20, 0x07	; 7
    196c:	60 e0       	ldi	r22, 0x00	; 0
    196e:	89 e8       	ldi	r24, 0x89	; 137
    1970:	92 e0       	ldi	r25, 0x02	; 2
    1972:	0e 94 99 06 	call	0xd32	; 0xd32 <lcd_set_string>
		update=0;
    1976:	10 92 e8 06 	sts	0x06E8, r1	; 0x8006e8 <update>
	}
	if(BUT_FIX==1){
    197a:	80 91 ea 06 	lds	r24, 0x06EA	; 0x8006ea <BUT_FIX>
    197e:	81 30       	cpi	r24, 0x01	; 1
    1980:	09 f0       	breq	.+2      	; 0x1984 <Seting_menu+0x136>
    1982:	4d c0       	rjmp	.+154    	; 0x1a1e <Seting_menu+0x1d0>
		switch(BUTTON){
    1984:	e0 91 68 02 	lds	r30, 0x0268	; 0x800268 <BUTTON>
    1988:	8e 2f       	mov	r24, r30
    198a:	90 e0       	ldi	r25, 0x00	; 0
    198c:	fc 01       	movw	r30, r24
    198e:	31 97       	sbiw	r30, 0x01	; 1
    1990:	ea 30       	cpi	r30, 0x0A	; 10
    1992:	f1 05       	cpc	r31, r1
    1994:	f0 f5       	brcc	.+124    	; 0x1a12 <Seting_menu+0x1c4>
    1996:	e8 5b       	subi	r30, 0xB8	; 184
    1998:	ff 4f       	sbci	r31, 0xFF	; 255
    199a:	0c 94 aa 22 	jmp	0x4554	; 0x4554 <__tablejump2__>
			case 10:
				page=0;
    199e:	10 92 e9 06 	sts	0x06E9, r1	; 0x8006e9 <page>
				write_eeprom(0x70,alarm_time);
    19a2:	60 91 d2 06 	lds	r22, 0x06D2	; 0x8006d2 <alarm_time>
    19a6:	80 e7       	ldi	r24, 0x70	; 112
    19a8:	0e 94 43 07 	call	0xe86	; 0xe86 <write_eeprom>
				write_eeprom(0x71,sistem_mode);
    19ac:	60 91 69 02 	lds	r22, 0x0269	; 0x800269 <sistem_mode>
    19b0:	81 e7       	ldi	r24, 0x71	; 113
    19b2:	0e 94 43 07 	call	0xe86	; 0xe86 <write_eeprom>
			break;
    19b6:	2d c0       	rjmp	.+90     	; 0x1a12 <Seting_menu+0x1c4>
			case 1:page=41;break;
    19b8:	89 e2       	ldi	r24, 0x29	; 41
    19ba:	80 93 e9 06 	sts	0x06E9, r24	; 0x8006e9 <page>
    19be:	29 c0       	rjmp	.+82     	; 0x1a12 <Seting_menu+0x1c4>
			case 2:page=42;break;
    19c0:	8a e2       	ldi	r24, 0x2A	; 42
    19c2:	80 93 e9 06 	sts	0x06E9, r24	; 0x8006e9 <page>
    19c6:	25 c0       	rjmp	.+74     	; 0x1a12 <Seting_menu+0x1c4>
			case 3:page=43;break;
    19c8:	8b e2       	ldi	r24, 0x2B	; 43
    19ca:	80 93 e9 06 	sts	0x06E9, r24	; 0x8006e9 <page>
    19ce:	21 c0       	rjmp	.+66     	; 0x1a12 <Seting_menu+0x1c4>
			case 4:page=44;break;
    19d0:	8c e2       	ldi	r24, 0x2C	; 44
    19d2:	80 93 e9 06 	sts	0x06E9, r24	; 0x8006e9 <page>
    19d6:	1d c0       	rjmp	.+58     	; 0x1a12 <Seting_menu+0x1c4>
			case 5:
				if(sistem_mode)sistem_mode=0;
    19d8:	80 91 69 02 	lds	r24, 0x0269	; 0x800269 <sistem_mode>
    19dc:	88 23       	and	r24, r24
    19de:	19 f0       	breq	.+6      	; 0x19e6 <Seting_menu+0x198>
    19e0:	10 92 69 02 	sts	0x0269, r1	; 0x800269 <sistem_mode>
    19e4:	16 c0       	rjmp	.+44     	; 0x1a12 <Seting_menu+0x1c4>
				else sistem_mode=1;
    19e6:	81 e0       	ldi	r24, 0x01	; 1
    19e8:	80 93 69 02 	sts	0x0269, r24	; 0x800269 <sistem_mode>
    19ec:	12 c0       	rjmp	.+36     	; 0x1a12 <Seting_menu+0x1c4>
			break;
			case 6:
				if(alarm_time<9)alarm_time++;
    19ee:	80 91 d2 06 	lds	r24, 0x06D2	; 0x8006d2 <alarm_time>
    19f2:	89 30       	cpi	r24, 0x09	; 9
    19f4:	30 f4       	brcc	.+12     	; 0x1a02 <Seting_menu+0x1b4>
    19f6:	80 91 d2 06 	lds	r24, 0x06D2	; 0x8006d2 <alarm_time>
    19fa:	8f 5f       	subi	r24, 0xFF	; 255
    19fc:	80 93 d2 06 	sts	0x06D2, r24	; 0x8006d2 <alarm_time>
    1a00:	08 c0       	rjmp	.+16     	; 0x1a12 <Seting_menu+0x1c4>
				else alarm_time=0;
    1a02:	10 92 d2 06 	sts	0x06D2, r1	; 0x8006d2 <alarm_time>
    1a06:	05 c0       	rjmp	.+10     	; 0x1a12 <Seting_menu+0x1c4>
			break;
			case 7:page=46;lcd_bufer[0]=0;break;
    1a08:	8e e2       	ldi	r24, 0x2E	; 46
    1a0a:	80 93 e9 06 	sts	0x06E9, r24	; 0x8006e9 <page>
    1a0e:	10 92 ed 06 	sts	0x06ED, r1	; 0x8006ed <lcd_bufer>
			default:;
		}
		BUT_FIX=2;
    1a12:	82 e0       	ldi	r24, 0x02	; 2
    1a14:	80 93 ea 06 	sts	0x06EA, r24	; 0x8006ea <BUT_FIX>
		update=1;
    1a18:	81 e0       	ldi	r24, 0x01	; 1
    1a1a:	80 93 e8 06 	sts	0x06E8, r24	; 0x8006e8 <update>
    1a1e:	08 95       	ret

00001a20 <Reset_seting>:
	}
}


							//сброс настроек  page=46
void Reset_seting(){
    1a20:	cf 92       	push	r12
    1a22:	df 92       	push	r13
    1a24:	ef 92       	push	r14
    1a26:	ff 92       	push	r15
    1a28:	0f 93       	push	r16
    1a2a:	1f 93       	push	r17
    1a2c:	cf 93       	push	r28
    1a2e:	df 93       	push	r29
	if(update){
    1a30:	80 91 e8 06 	lds	r24, 0x06E8	; 0x8006e8 <update>
    1a34:	88 23       	and	r24, r24
    1a36:	c9 f1       	breq	.+114    	; 0x1aaa <Reset_seting+0x8a>
		lcd_clean();
    1a38:	0e 94 36 06 	call	0xc6c	; 0xc6c <lcd_clean>
		if(lcd_bufer[0]==0){
    1a3c:	80 91 ed 06 	lds	r24, 0x06ED	; 0x8006ed <lcd_bufer>
    1a40:	81 11       	cpse	r24, r1
    1a42:	19 c0       	rjmp	.+50     	; 0x1a76 <Reset_seting+0x56>
			lcd_set_string("Вернуть",42,1);
    1a44:	41 e0       	ldi	r20, 0x01	; 1
    1a46:	6a e2       	ldi	r22, 0x2A	; 42
    1a48:	8f e1       	ldi	r24, 0x1F	; 31
    1a4a:	94 e0       	ldi	r25, 0x04	; 4
    1a4c:	0e 94 99 06 	call	0xd32	; 0xd32 <lcd_set_string>
			lcd_set_string("к заводским",30,3);
    1a50:	43 e0       	ldi	r20, 0x03	; 3
    1a52:	6e e1       	ldi	r22, 0x1E	; 30
    1a54:	87 e2       	ldi	r24, 0x27	; 39
    1a56:	94 e0       	ldi	r25, 0x04	; 4
    1a58:	0e 94 99 06 	call	0xd32	; 0xd32 <lcd_set_string>
			lcd_set_string("настройкам?",30,5);
    1a5c:	45 e0       	ldi	r20, 0x05	; 5
    1a5e:	6e e1       	ldi	r22, 0x1E	; 30
    1a60:	83 e3       	ldi	r24, 0x33	; 51
    1a62:	94 e0       	ldi	r25, 0x04	; 4
    1a64:	0e 94 99 06 	call	0xd32	; 0xd32 <lcd_set_string>
			lcd_set_string("*-Нет            #-Да",0,7);
    1a68:	47 e0       	ldi	r20, 0x07	; 7
    1a6a:	60 e0       	ldi	r22, 0x00	; 0
    1a6c:	8a e3       	ldi	r24, 0x3A	; 58
    1a6e:	93 e0       	ldi	r25, 0x03	; 3
    1a70:	0e 94 99 06 	call	0xd32	; 0xd32 <lcd_set_string>
    1a74:	18 c0       	rjmp	.+48     	; 0x1aa6 <Reset_seting+0x86>
		}
		else{
			lcd_set_string("Настройки",36,1);
    1a76:	41 e0       	ldi	r20, 0x01	; 1
    1a78:	64 e2       	ldi	r22, 0x24	; 36
    1a7a:	8f e3       	ldi	r24, 0x3F	; 63
    1a7c:	94 e0       	ldi	r25, 0x04	; 4
    1a7e:	0e 94 99 06 	call	0xd32	; 0xd32 <lcd_set_string>
			lcd_set_string("восстановлены",24,3);
    1a82:	43 e0       	ldi	r20, 0x03	; 3
    1a84:	68 e1       	ldi	r22, 0x18	; 24
    1a86:	89 e4       	ldi	r24, 0x49	; 73
    1a88:	94 e0       	ldi	r25, 0x04	; 4
    1a8a:	0e 94 99 06 	call	0xd32	; 0xd32 <lcd_set_string>
			lcd_set_string("до зоводских",27,5);
    1a8e:	45 e0       	ldi	r20, 0x05	; 5
    1a90:	6b e1       	ldi	r22, 0x1B	; 27
    1a92:	87 e5       	ldi	r24, 0x57	; 87
    1a94:	94 e0       	ldi	r25, 0x04	; 4
    1a96:	0e 94 99 06 	call	0xd32	; 0xd32 <lcd_set_string>
			lcd_set_string("*-Отмена",0,7);
    1a9a:	47 e0       	ldi	r20, 0x07	; 7
    1a9c:	60 e0       	ldi	r22, 0x00	; 0
    1a9e:	89 e8       	ldi	r24, 0x89	; 137
    1aa0:	92 e0       	ldi	r25, 0x02	; 2
    1aa2:	0e 94 99 06 	call	0xd32	; 0xd32 <lcd_set_string>
		}
		update=0;
    1aa6:	10 92 e8 06 	sts	0x06E8, r1	; 0x8006e8 <update>
	}
	if(BUT_FIX==1){
    1aaa:	80 91 ea 06 	lds	r24, 0x06EA	; 0x8006ea <BUT_FIX>
    1aae:	81 30       	cpi	r24, 0x01	; 1
    1ab0:	09 f0       	breq	.+2      	; 0x1ab4 <Reset_seting+0x94>
    1ab2:	7f c0       	rjmp	.+254    	; 0x1bb2 <Reset_seting+0x192>
		if(BUTTON==10){
    1ab4:	80 91 68 02 	lds	r24, 0x0268	; 0x800268 <BUTTON>
    1ab8:	8a 30       	cpi	r24, 0x0A	; 10
    1aba:	39 f4       	brne	.+14     	; 0x1aca <Reset_seting+0xaa>
			page=4;
    1abc:	84 e0       	ldi	r24, 0x04	; 4
    1abe:	80 93 e9 06 	sts	0x06E9, r24	; 0x8006e9 <page>
			update=1;
    1ac2:	81 e0       	ldi	r24, 0x01	; 1
    1ac4:	80 93 e8 06 	sts	0x06E8, r24	; 0x8006e8 <update>
    1ac8:	71 c0       	rjmp	.+226    	; 0x1bac <Reset_seting+0x18c>
		}
		else if(BUTTON==11){
    1aca:	80 91 68 02 	lds	r24, 0x0268	; 0x800268 <BUTTON>
    1ace:	8b 30       	cpi	r24, 0x0B	; 11
    1ad0:	09 f0       	breq	.+2      	; 0x1ad4 <Reset_seting+0xb4>
    1ad2:	6c c0       	rjmp	.+216    	; 0x1bac <Reset_seting+0x18c>
			if(lcd_bufer[0]==0){
    1ad4:	80 91 ed 06 	lds	r24, 0x06ED	; 0x8006ed <lcd_bufer>
    1ad8:	81 11       	cpse	r24, r1
    1ada:	65 c0       	rjmp	.+202    	; 0x1ba6 <Reset_seting+0x186>
    1adc:	0f 2e       	mov	r0, r31
    1ade:	f0 e0       	ldi	r31, 0x00	; 0
    1ae0:	cf 2e       	mov	r12, r31
    1ae2:	f1 e0       	ldi	r31, 0x01	; 1
    1ae4:	df 2e       	mov	r13, r31
    1ae6:	f0 2d       	mov	r31, r0
    1ae8:	0f 2e       	mov	r0, r31
    1aea:	f0 e2       	ldi	r31, 0x20	; 32
    1aec:	ef 2e       	mov	r14, r31
    1aee:	f2 e0       	ldi	r31, 0x02	; 2
    1af0:	ff 2e       	mov	r15, r31
    1af2:	f0 2d       	mov	r31, r0
    1af4:	00 ee       	ldi	r16, 0xE0	; 224
    1af6:	11 e0       	ldi	r17, 0x01	; 1
    1af8:	c0 e0       	ldi	r28, 0x00	; 0
				for(uint8_t i=0;i<64;i++){
					EMZ.status[i]=BLOCK;
    1afa:	d2 e4       	ldi	r29, 0x42	; 66
    1afc:	f6 01       	movw	r30, r12
    1afe:	d1 93       	st	Z+, r29
    1b00:	6f 01       	movw	r12, r30
					write_eeprom(i,BLOCK);
    1b02:	6d 2f       	mov	r22, r29
    1b04:	8c 2f       	mov	r24, r28
    1b06:	0e 94 43 07 	call	0xe86	; 0xe86 <write_eeprom>
					EMZ.position[i]=i;
    1b0a:	f7 01       	movw	r30, r14
    1b0c:	c1 93       	st	Z+, r28
    1b0e:	7f 01       	movw	r14, r30
					write_eeprom(i+0xC0,i);
    1b10:	6c 2f       	mov	r22, r28
    1b12:	80 ec       	ldi	r24, 0xC0	; 192
    1b14:	8c 0f       	add	r24, r28
    1b16:	0e 94 43 07 	call	0xe86	; 0xe86 <write_eeprom>
					EMZ.adress[i]=i;
    1b1a:	f8 01       	movw	r30, r16
    1b1c:	c1 93       	st	Z+, r28
    1b1e:	8f 01       	movw	r16, r30
					write_eeprom(i+0x80,i);
    1b20:	6c 2f       	mov	r22, r28
    1b22:	80 e8       	ldi	r24, 0x80	; 128
    1b24:	8c 0f       	add	r24, r28
    1b26:	0e 94 43 07 	call	0xe86	; 0xe86 <write_eeprom>
			page=4;
			update=1;
		}
		else if(BUTTON==11){
			if(lcd_bufer[0]==0){
				for(uint8_t i=0;i<64;i++){
    1b2a:	cf 5f       	subi	r28, 0xFF	; 255
    1b2c:	c0 34       	cpi	r28, 0x40	; 64
    1b2e:	31 f7       	brne	.-52     	; 0x1afc <Reset_seting+0xdc>
					EMZ.position[i]=i;
					write_eeprom(i+0xC0,i);
					EMZ.adress[i]=i;
					write_eeprom(i+0x80,i);
				}
				write_eeprom(0x50,0);
    1b30:	60 e0       	ldi	r22, 0x00	; 0
    1b32:	80 e5       	ldi	r24, 0x50	; 80
    1b34:	0e 94 43 07 	call	0xe86	; 0xe86 <write_eeprom>
				write_eeprom(0x51,0);
    1b38:	60 e0       	ldi	r22, 0x00	; 0
    1b3a:	81 e5       	ldi	r24, 0x51	; 81
    1b3c:	0e 94 43 07 	call	0xe86	; 0xe86 <write_eeprom>
				write_eeprom(0x52,0);
    1b40:	60 e0       	ldi	r22, 0x00	; 0
    1b42:	82 e5       	ldi	r24, 0x52	; 82
    1b44:	0e 94 43 07 	call	0xe86	; 0xe86 <write_eeprom>
				write_eeprom(0x53,0);
    1b48:	60 e0       	ldi	r22, 0x00	; 0
    1b4a:	83 e5       	ldi	r24, 0x53	; 83
    1b4c:	0e 94 43 07 	call	0xe86	; 0xe86 <write_eeprom>
				admin_password[0]=0;
    1b50:	e8 ed       	ldi	r30, 0xD8	; 216
    1b52:	f6 e0       	ldi	r31, 0x06	; 6
    1b54:	10 82       	st	Z, r1
				admin_password[1]=0;
    1b56:	11 82       	std	Z+1, r1	; 0x01
				admin_password[2]=0;
    1b58:	12 82       	std	Z+2, r1	; 0x02
				admin_password[3]=0;
    1b5a:	13 82       	std	Z+3, r1	; 0x03
				
				write_eeprom(0x60,0);
    1b5c:	60 e0       	ldi	r22, 0x00	; 0
    1b5e:	80 e6       	ldi	r24, 0x60	; 96
    1b60:	0e 94 43 07 	call	0xe86	; 0xe86 <write_eeprom>
				write_eeprom(0x61,0);
    1b64:	60 e0       	ldi	r22, 0x00	; 0
    1b66:	81 e6       	ldi	r24, 0x61	; 97
    1b68:	0e 94 43 07 	call	0xe86	; 0xe86 <write_eeprom>
				write_eeprom(0x62,0);
    1b6c:	60 e0       	ldi	r22, 0x00	; 0
    1b6e:	82 e6       	ldi	r24, 0x62	; 98
    1b70:	0e 94 43 07 	call	0xe86	; 0xe86 <write_eeprom>
				write_eeprom(0x63,0);
    1b74:	60 e0       	ldi	r22, 0x00	; 0
    1b76:	83 e6       	ldi	r24, 0x63	; 99
    1b78:	0e 94 43 07 	call	0xe86	; 0xe86 <write_eeprom>
				user_password[0]=0;
    1b7c:	ec ed       	ldi	r30, 0xDC	; 220
    1b7e:	f6 e0       	ldi	r31, 0x06	; 6
    1b80:	10 82       	st	Z, r1
				user_password[1]=0;
    1b82:	11 82       	std	Z+1, r1	; 0x01
				user_password[2]=0;
    1b84:	12 82       	std	Z+2, r1	; 0x02
				user_password[3]=0;
    1b86:	13 82       	std	Z+3, r1	; 0x03
				
				write_eeprom(0x70,0);
    1b88:	60 e0       	ldi	r22, 0x00	; 0
    1b8a:	80 e7       	ldi	r24, 0x70	; 112
    1b8c:	0e 94 43 07 	call	0xe86	; 0xe86 <write_eeprom>
				alarm_time=0;
    1b90:	10 92 d2 06 	sts	0x06D2, r1	; 0x8006d2 <alarm_time>
				write_eeprom(0x71,1);
    1b94:	61 e0       	ldi	r22, 0x01	; 1
    1b96:	81 e7       	ldi	r24, 0x71	; 113
    1b98:	0e 94 43 07 	call	0xe86	; 0xe86 <write_eeprom>
				sistem_mode=1;
    1b9c:	81 e0       	ldi	r24, 0x01	; 1
    1b9e:	80 93 69 02 	sts	0x0269, r24	; 0x800269 <sistem_mode>
				
				lcd_bufer[0]=1;
    1ba2:	80 93 ed 06 	sts	0x06ED, r24	; 0x8006ed <lcd_bufer>
			}
			update=1;
    1ba6:	81 e0       	ldi	r24, 0x01	; 1
    1ba8:	80 93 e8 06 	sts	0x06E8, r24	; 0x8006e8 <update>
		}
		BUT_FIX=2;
    1bac:	82 e0       	ldi	r24, 0x02	; 2
    1bae:	80 93 ea 06 	sts	0x06EA, r24	; 0x8006ea <BUT_FIX>
	}
}
    1bb2:	df 91       	pop	r29
    1bb4:	cf 91       	pop	r28
    1bb6:	1f 91       	pop	r17
    1bb8:	0f 91       	pop	r16
    1bba:	ff 90       	pop	r15
    1bbc:	ef 90       	pop	r14
    1bbe:	df 90       	pop	r13
    1bc0:	cf 90       	pop	r12
    1bc2:	08 95       	ret

00001bc4 <DPNK_DISCONNECT>:

								//пульт ДПНК отключен page=7

void DPNK_DISCONNECT(void){
	if(update){
    1bc4:	80 91 e8 06 	lds	r24, 0x06E8	; 0x8006e8 <update>
    1bc8:	88 23       	and	r24, r24
    1bca:	81 f0       	breq	.+32     	; 0x1bec <DPNK_DISCONNECT+0x28>
		lcd_clean();
    1bcc:	0e 94 36 06 	call	0xc6c	; 0xc6c <lcd_clean>
		lcd_set_string("Пульт ДПНК",33,3);
    1bd0:	43 e0       	ldi	r20, 0x03	; 3
    1bd2:	61 e2       	ldi	r22, 0x21	; 33
    1bd4:	84 e6       	ldi	r24, 0x64	; 100
    1bd6:	94 e0       	ldi	r25, 0x04	; 4
    1bd8:	0e 94 99 06 	call	0xd32	; 0xd32 <lcd_set_string>
		lcd_set_string("отключен",39,5);
    1bdc:	45 e0       	ldi	r20, 0x05	; 5
    1bde:	67 e2       	ldi	r22, 0x27	; 39
    1be0:	8f e6       	ldi	r24, 0x6F	; 111
    1be2:	94 e0       	ldi	r25, 0x04	; 4
    1be4:	0e 94 99 06 	call	0xd32	; 0xd32 <lcd_set_string>
		update=0;
    1be8:	10 92 e8 06 	sts	0x06E8, r1	; 0x8006e8 <update>
	}
	if(sistem_mode){
    1bec:	80 91 69 02 	lds	r24, 0x0269	; 0x800269 <sistem_mode>
    1bf0:	88 23       	and	r24, r24
    1bf2:	29 f0       	breq	.+10     	; 0x1bfe <DPNK_DISCONNECT+0x3a>
		page=0;
    1bf4:	10 92 e9 06 	sts	0x06E9, r1	; 0x8006e9 <page>
		update=1;
    1bf8:	81 e0       	ldi	r24, 0x01	; 1
    1bfa:	80 93 e8 06 	sts	0x06E8, r24	; 0x8006e8 <update>
	}
	if(BUT_FIX==1){
    1bfe:	80 91 ea 06 	lds	r24, 0x06EA	; 0x8006ea <BUT_FIX>
    1c02:	81 30       	cpi	r24, 0x01	; 1
    1c04:	31 f4       	brne	.+12     	; 0x1c12 <DPNK_DISCONNECT+0x4e>
		BUT_FIX=2;
    1c06:	82 e0       	ldi	r24, 0x02	; 2
    1c08:	80 93 ea 06 	sts	0x06EA, r24	; 0x8006ea <BUT_FIX>
		update=1;
    1c0c:	81 e0       	ldi	r24, 0x01	; 1
    1c0e:	80 93 e8 06 	sts	0x06E8, r24	; 0x8006e8 <update>
    1c12:	08 95       	ret

00001c14 <Set_password_admin>:
	}
}

void Set_password_admin(void){
    1c14:	0f 93       	push	r16
    1c16:	1f 93       	push	r17
    1c18:	cf 93       	push	r28
    1c1a:	df 93       	push	r29
	if(update){
    1c1c:	80 91 e8 06 	lds	r24, 0x06E8	; 0x8006e8 <update>
    1c20:	88 23       	and	r24, r24
    1c22:	e9 f1       	breq	.+122    	; 0x1c9e <Set_password_admin+0x8a>
		lcd_clean();
    1c24:	0e 94 36 06 	call	0xc6c	; 0xc6c <lcd_clean>
		lcd_set_string("Введите пароль",21,2);
    1c28:	42 e0       	ldi	r20, 0x02	; 2
    1c2a:	65 e1       	ldi	r22, 0x15	; 21
    1c2c:	83 e0       	ldi	r24, 0x03	; 3
    1c2e:	93 e0       	ldi	r25, 0x03	; 3
    1c30:	0e 94 99 06 	call	0xd32	; 0xd32 <lcd_set_string>
		lcd_set_string("администратора",21,3);
    1c34:	43 e0       	ldi	r20, 0x03	; 3
    1c36:	65 e1       	ldi	r22, 0x15	; 21
    1c38:	88 e7       	ldi	r24, 0x78	; 120
    1c3a:	94 e0       	ldi	r25, 0x04	; 4
    1c3c:	0e 94 99 06 	call	0xd32	; 0xd32 <lcd_set_string>
    1c40:	1a e2       	ldi	r17, 0x2A	; 42
    1c42:	c0 e0       	ldi	r28, 0x00	; 0
    1c44:	d0 e0       	ldi	r29, 0x00	; 0
		for(uint8_t i=0;i<4;i++){
			if(bufer_password[i]>9)lcd_set_ch('*',42+(12*i),5);
    1c46:	fe 01       	movw	r30, r28
    1c48:	e0 5a       	subi	r30, 0xA0	; 160
    1c4a:	fd 4f       	sbci	r31, 0xFD	; 253
    1c4c:	80 81       	ld	r24, Z
    1c4e:	8a 30       	cpi	r24, 0x0A	; 10
    1c50:	30 f0       	brcs	.+12     	; 0x1c5e <Set_password_admin+0x4a>
    1c52:	45 e0       	ldi	r20, 0x05	; 5
    1c54:	61 2f       	mov	r22, r17
    1c56:	8a e2       	ldi	r24, 0x2A	; 42
    1c58:	0e 94 4e 06 	call	0xc9c	; 0xc9c <lcd_set_ch>
    1c5c:	09 c0       	rjmp	.+18     	; 0x1c70 <Set_password_admin+0x5c>
			else lcd_set_ch(bufer_password[i]+0x30,42+(12*i),5);
    1c5e:	fe 01       	movw	r30, r28
    1c60:	e0 5a       	subi	r30, 0xA0	; 160
    1c62:	fd 4f       	sbci	r31, 0xFD	; 253
    1c64:	80 81       	ld	r24, Z
    1c66:	45 e0       	ldi	r20, 0x05	; 5
    1c68:	61 2f       	mov	r22, r17
    1c6a:	80 5d       	subi	r24, 0xD0	; 208
    1c6c:	0e 94 4e 06 	call	0xc9c	; 0xc9c <lcd_set_ch>
    1c70:	21 96       	adiw	r28, 0x01	; 1
    1c72:	14 5f       	subi	r17, 0xF4	; 244
void Set_password_admin(void){
	if(update){
		lcd_clean();
		lcd_set_string("Введите пароль",21,2);
		lcd_set_string("администратора",21,3);
		for(uint8_t i=0;i<4;i++){
    1c74:	c4 30       	cpi	r28, 0x04	; 4
    1c76:	d1 05       	cpc	r29, r1
    1c78:	31 f7       	brne	.-52     	; 0x1c46 <Set_password_admin+0x32>
			if(bufer_password[i]>9)lcd_set_ch('*',42+(12*i),5);
			else lcd_set_ch(bufer_password[i]+0x30,42+(12*i),5);
		}
		lcd_set_string("*-Отмена",0,7);
    1c7a:	47 e0       	ldi	r20, 0x07	; 7
    1c7c:	60 e0       	ldi	r22, 0x00	; 0
    1c7e:	89 e8       	ldi	r24, 0x89	; 137
    1c80:	92 e0       	ldi	r25, 0x02	; 2
    1c82:	0e 94 99 06 	call	0xd32	; 0xd32 <lcd_set_string>
		if(bufer_password[3]<10)lcd_set_string("#-ввод",90,7);
    1c86:	80 91 63 02 	lds	r24, 0x0263	; 0x800263 <bufer_password+0x3>
    1c8a:	8a 30       	cpi	r24, 0x0A	; 10
    1c8c:	30 f4       	brcc	.+12     	; 0x1c9a <Set_password_admin+0x86>
    1c8e:	47 e0       	ldi	r20, 0x07	; 7
    1c90:	6a e5       	ldi	r22, 0x5A	; 90
    1c92:	87 e8       	ldi	r24, 0x87	; 135
    1c94:	94 e0       	ldi	r25, 0x04	; 4
    1c96:	0e 94 99 06 	call	0xd32	; 0xd32 <lcd_set_string>
		//lcd_set_string("Заблокирован",27,6);
		//lcd_set_string("*-отмена       #-ввод",0,7);
		update=0;
    1c9a:	10 92 e8 06 	sts	0x06E8, r1	; 0x8006e8 <update>
	}
	if(BUT_FIX==1){
    1c9e:	80 91 ea 06 	lds	r24, 0x06EA	; 0x8006ea <BUT_FIX>
    1ca2:	81 30       	cpi	r24, 0x01	; 1
    1ca4:	09 f0       	breq	.+2      	; 0x1ca8 <Set_password_admin+0x94>
    1ca6:	69 c0       	rjmp	.+210    	; 0x1d7a <Set_password_admin+0x166>
		switch(BUTTON){
    1ca8:	80 91 68 02 	lds	r24, 0x0268	; 0x800268 <BUTTON>
    1cac:	8a 30       	cpi	r24, 0x0A	; 10
    1cae:	19 f0       	breq	.+6      	; 0x1cb6 <Set_password_admin+0xa2>
    1cb0:	8b 30       	cpi	r24, 0x0B	; 11
    1cb2:	61 f0       	breq	.+24     	; 0x1ccc <Set_password_admin+0xb8>
    1cb4:	39 c0       	rjmp	.+114    	; 0x1d28 <Set_password_admin+0x114>
			case 10:
				page=4;
    1cb6:	84 e0       	ldi	r24, 0x04	; 4
    1cb8:	80 93 e9 06 	sts	0x06E9, r24	; 0x8006e9 <page>
				bufer_password[0]=10;
    1cbc:	e0 e6       	ldi	r30, 0x60	; 96
    1cbe:	f2 e0       	ldi	r31, 0x02	; 2
    1cc0:	8a e0       	ldi	r24, 0x0A	; 10
    1cc2:	80 83       	st	Z, r24
				bufer_password[1]=10;
    1cc4:	81 83       	std	Z+1, r24	; 0x01
				bufer_password[2]=10;
    1cc6:	82 83       	std	Z+2, r24	; 0x02
				bufer_password[3]=10;
    1cc8:	83 83       	std	Z+3, r24	; 0x03
			break;
    1cca:	51 c0       	rjmp	.+162    	; 0x1d6e <Set_password_admin+0x15a>
			case 11:
				if(bufer_password[3]<10){
    1ccc:	80 91 63 02 	lds	r24, 0x0263	; 0x800263 <bufer_password+0x3>
    1cd0:	8a 30       	cpi	r24, 0x0A	; 10
    1cd2:	08 f0       	brcs	.+2      	; 0x1cd6 <Set_password_admin+0xc2>
    1cd4:	4c c0       	rjmp	.+152    	; 0x1d6e <Set_password_admin+0x15a>
					page=4;
    1cd6:	84 e0       	ldi	r24, 0x04	; 4
    1cd8:	80 93 e9 06 	sts	0x06E9, r24	; 0x8006e9 <page>
					admin_password[0]=bufer_password[0];
    1cdc:	c0 e6       	ldi	r28, 0x60	; 96
    1cde:	d2 e0       	ldi	r29, 0x02	; 2
    1ce0:	88 81       	ld	r24, Y
    1ce2:	08 ed       	ldi	r16, 0xD8	; 216
    1ce4:	16 e0       	ldi	r17, 0x06	; 6
    1ce6:	f8 01       	movw	r30, r16
    1ce8:	80 83       	st	Z, r24
					admin_password[1]=bufer_password[1];
    1cea:	89 81       	ldd	r24, Y+1	; 0x01
    1cec:	81 83       	std	Z+1, r24	; 0x01
					admin_password[2]=bufer_password[2];
    1cee:	8a 81       	ldd	r24, Y+2	; 0x02
    1cf0:	82 83       	std	Z+2, r24	; 0x02
					admin_password[3]=bufer_password[3];
    1cf2:	8b 81       	ldd	r24, Y+3	; 0x03
    1cf4:	83 83       	std	Z+3, r24	; 0x03
					write_eeprom(0x50,admin_password[0]);
    1cf6:	60 81       	ld	r22, Z
    1cf8:	80 e5       	ldi	r24, 0x50	; 80
    1cfa:	0e 94 43 07 	call	0xe86	; 0xe86 <write_eeprom>
					write_eeprom(0x51,admin_password[1]);
    1cfe:	f8 01       	movw	r30, r16
    1d00:	61 81       	ldd	r22, Z+1	; 0x01
    1d02:	81 e5       	ldi	r24, 0x51	; 81
    1d04:	0e 94 43 07 	call	0xe86	; 0xe86 <write_eeprom>
					write_eeprom(0x52,admin_password[2]);
    1d08:	f8 01       	movw	r30, r16
    1d0a:	62 81       	ldd	r22, Z+2	; 0x02
    1d0c:	82 e5       	ldi	r24, 0x52	; 82
    1d0e:	0e 94 43 07 	call	0xe86	; 0xe86 <write_eeprom>
					write_eeprom(0x53,admin_password[3]);
    1d12:	f8 01       	movw	r30, r16
    1d14:	63 81       	ldd	r22, Z+3	; 0x03
    1d16:	83 e5       	ldi	r24, 0x53	; 83
    1d18:	0e 94 43 07 	call	0xe86	; 0xe86 <write_eeprom>
					bufer_password[0]=10;
    1d1c:	8a e0       	ldi	r24, 0x0A	; 10
    1d1e:	88 83       	st	Y, r24
					bufer_password[1]=10;
    1d20:	89 83       	std	Y+1, r24	; 0x01
					bufer_password[2]=10;
    1d22:	8a 83       	std	Y+2, r24	; 0x02
					bufer_password[3]=10;
    1d24:	8b 83       	std	Y+3, r24	; 0x03
    1d26:	23 c0       	rjmp	.+70     	; 0x1d6e <Set_password_admin+0x15a>
				}
			break;
			default:
				if(bufer_password[0]==10)bufer_password[0]=BUTTON;
    1d28:	80 91 60 02 	lds	r24, 0x0260	; 0x800260 <bufer_password>
    1d2c:	8a 30       	cpi	r24, 0x0A	; 10
    1d2e:	29 f4       	brne	.+10     	; 0x1d3a <Set_password_admin+0x126>
    1d30:	80 91 68 02 	lds	r24, 0x0268	; 0x800268 <BUTTON>
    1d34:	80 93 60 02 	sts	0x0260, r24	; 0x800260 <bufer_password>
    1d38:	1a c0       	rjmp	.+52     	; 0x1d6e <Set_password_admin+0x15a>
				else if(bufer_password[1]==10)bufer_password[1]=BUTTON;
    1d3a:	80 91 61 02 	lds	r24, 0x0261	; 0x800261 <bufer_password+0x1>
    1d3e:	8a 30       	cpi	r24, 0x0A	; 10
    1d40:	29 f4       	brne	.+10     	; 0x1d4c <Set_password_admin+0x138>
    1d42:	80 91 68 02 	lds	r24, 0x0268	; 0x800268 <BUTTON>
    1d46:	80 93 61 02 	sts	0x0261, r24	; 0x800261 <bufer_password+0x1>
    1d4a:	11 c0       	rjmp	.+34     	; 0x1d6e <Set_password_admin+0x15a>
				else if(bufer_password[2]==10)bufer_password[2]=BUTTON;
    1d4c:	80 91 62 02 	lds	r24, 0x0262	; 0x800262 <bufer_password+0x2>
    1d50:	8a 30       	cpi	r24, 0x0A	; 10
    1d52:	29 f4       	brne	.+10     	; 0x1d5e <Set_password_admin+0x14a>
    1d54:	80 91 68 02 	lds	r24, 0x0268	; 0x800268 <BUTTON>
    1d58:	80 93 62 02 	sts	0x0262, r24	; 0x800262 <bufer_password+0x2>
    1d5c:	08 c0       	rjmp	.+16     	; 0x1d6e <Set_password_admin+0x15a>
				else if(bufer_password[3]==10)bufer_password[3]=BUTTON;
    1d5e:	80 91 63 02 	lds	r24, 0x0263	; 0x800263 <bufer_password+0x3>
    1d62:	8a 30       	cpi	r24, 0x0A	; 10
    1d64:	21 f4       	brne	.+8      	; 0x1d6e <Set_password_admin+0x15a>
    1d66:	80 91 68 02 	lds	r24, 0x0268	; 0x800268 <BUTTON>
    1d6a:	80 93 63 02 	sts	0x0263, r24	; 0x800263 <bufer_password+0x3>
			break;
		}
		BUT_FIX=2;
    1d6e:	82 e0       	ldi	r24, 0x02	; 2
    1d70:	80 93 ea 06 	sts	0x06EA, r24	; 0x8006ea <BUT_FIX>
		update=1;
    1d74:	81 e0       	ldi	r24, 0x01	; 1
    1d76:	80 93 e8 06 	sts	0x06E8, r24	; 0x8006e8 <update>
	}
}
    1d7a:	df 91       	pop	r29
    1d7c:	cf 91       	pop	r28
    1d7e:	1f 91       	pop	r17
    1d80:	0f 91       	pop	r16
    1d82:	08 95       	ret

00001d84 <Set_password_user>:

void Set_password_user(void){
    1d84:	0f 93       	push	r16
    1d86:	1f 93       	push	r17
    1d88:	cf 93       	push	r28
    1d8a:	df 93       	push	r29
	if(update){
    1d8c:	80 91 e8 06 	lds	r24, 0x06E8	; 0x8006e8 <update>
    1d90:	88 23       	and	r24, r24
    1d92:	e9 f1       	breq	.+122    	; 0x1e0e <Set_password_user+0x8a>
		lcd_clean();
    1d94:	0e 94 36 06 	call	0xc6c	; 0xc6c <lcd_clean>
		lcd_set_string("Введите пароль",21,2);
    1d98:	42 e0       	ldi	r20, 0x02	; 2
    1d9a:	65 e1       	ldi	r22, 0x15	; 21
    1d9c:	83 e0       	ldi	r24, 0x03	; 3
    1d9e:	93 e0       	ldi	r25, 0x03	; 3
    1da0:	0e 94 99 06 	call	0xd32	; 0xd32 <lcd_set_string>
		lcd_set_string("ДПНК",51,3);
    1da4:	43 e0       	ldi	r20, 0x03	; 3
    1da6:	63 e3       	ldi	r22, 0x33	; 51
    1da8:	8a e6       	ldi	r24, 0x6A	; 106
    1daa:	94 e0       	ldi	r25, 0x04	; 4
    1dac:	0e 94 99 06 	call	0xd32	; 0xd32 <lcd_set_string>
    1db0:	1a e2       	ldi	r17, 0x2A	; 42
    1db2:	c0 e0       	ldi	r28, 0x00	; 0
    1db4:	d0 e0       	ldi	r29, 0x00	; 0
		for(uint8_t i=0;i<4;i++){
			if(bufer_password[i]>9)lcd_set_ch('*',42+(12*i),5);
    1db6:	fe 01       	movw	r30, r28
    1db8:	e0 5a       	subi	r30, 0xA0	; 160
    1dba:	fd 4f       	sbci	r31, 0xFD	; 253
    1dbc:	80 81       	ld	r24, Z
    1dbe:	8a 30       	cpi	r24, 0x0A	; 10
    1dc0:	30 f0       	brcs	.+12     	; 0x1dce <Set_password_user+0x4a>
    1dc2:	45 e0       	ldi	r20, 0x05	; 5
    1dc4:	61 2f       	mov	r22, r17
    1dc6:	8a e2       	ldi	r24, 0x2A	; 42
    1dc8:	0e 94 4e 06 	call	0xc9c	; 0xc9c <lcd_set_ch>
    1dcc:	09 c0       	rjmp	.+18     	; 0x1de0 <Set_password_user+0x5c>
			else lcd_set_ch(bufer_password[i]+0x30,42+(12*i),5);
    1dce:	fe 01       	movw	r30, r28
    1dd0:	e0 5a       	subi	r30, 0xA0	; 160
    1dd2:	fd 4f       	sbci	r31, 0xFD	; 253
    1dd4:	80 81       	ld	r24, Z
    1dd6:	45 e0       	ldi	r20, 0x05	; 5
    1dd8:	61 2f       	mov	r22, r17
    1dda:	80 5d       	subi	r24, 0xD0	; 208
    1ddc:	0e 94 4e 06 	call	0xc9c	; 0xc9c <lcd_set_ch>
    1de0:	21 96       	adiw	r28, 0x01	; 1
    1de2:	14 5f       	subi	r17, 0xF4	; 244
void Set_password_user(void){
	if(update){
		lcd_clean();
		lcd_set_string("Введите пароль",21,2);
		lcd_set_string("ДПНК",51,3);
		for(uint8_t i=0;i<4;i++){
    1de4:	c4 30       	cpi	r28, 0x04	; 4
    1de6:	d1 05       	cpc	r29, r1
    1de8:	31 f7       	brne	.-52     	; 0x1db6 <Set_password_user+0x32>
			if(bufer_password[i]>9)lcd_set_ch('*',42+(12*i),5);
			else lcd_set_ch(bufer_password[i]+0x30,42+(12*i),5);
		}
		lcd_set_string("*-Отмена",0,7);
    1dea:	47 e0       	ldi	r20, 0x07	; 7
    1dec:	60 e0       	ldi	r22, 0x00	; 0
    1dee:	89 e8       	ldi	r24, 0x89	; 137
    1df0:	92 e0       	ldi	r25, 0x02	; 2
    1df2:	0e 94 99 06 	call	0xd32	; 0xd32 <lcd_set_string>
		if(bufer_password[3]<10)lcd_set_string("#-ввод",90,7);
    1df6:	80 91 63 02 	lds	r24, 0x0263	; 0x800263 <bufer_password+0x3>
    1dfa:	8a 30       	cpi	r24, 0x0A	; 10
    1dfc:	30 f4       	brcc	.+12     	; 0x1e0a <Set_password_user+0x86>
    1dfe:	47 e0       	ldi	r20, 0x07	; 7
    1e00:	6a e5       	ldi	r22, 0x5A	; 90
    1e02:	87 e8       	ldi	r24, 0x87	; 135
    1e04:	94 e0       	ldi	r25, 0x04	; 4
    1e06:	0e 94 99 06 	call	0xd32	; 0xd32 <lcd_set_string>
		//lcd_set_string("Заблокирован",27,6);
		//lcd_set_string("*-отмена       #-ввод",0,7);
		update=0;
    1e0a:	10 92 e8 06 	sts	0x06E8, r1	; 0x8006e8 <update>
	}
	if(BUT_FIX==1){
    1e0e:	80 91 ea 06 	lds	r24, 0x06EA	; 0x8006ea <BUT_FIX>
    1e12:	81 30       	cpi	r24, 0x01	; 1
    1e14:	09 f0       	breq	.+2      	; 0x1e18 <Set_password_user+0x94>
    1e16:	69 c0       	rjmp	.+210    	; 0x1eea <Set_password_user+0x166>
		switch(BUTTON){
    1e18:	80 91 68 02 	lds	r24, 0x0268	; 0x800268 <BUTTON>
    1e1c:	8a 30       	cpi	r24, 0x0A	; 10
    1e1e:	19 f0       	breq	.+6      	; 0x1e26 <Set_password_user+0xa2>
    1e20:	8b 30       	cpi	r24, 0x0B	; 11
    1e22:	61 f0       	breq	.+24     	; 0x1e3c <Set_password_user+0xb8>
    1e24:	39 c0       	rjmp	.+114    	; 0x1e98 <Set_password_user+0x114>
			case 10:
			page=4;
    1e26:	84 e0       	ldi	r24, 0x04	; 4
    1e28:	80 93 e9 06 	sts	0x06E9, r24	; 0x8006e9 <page>
			bufer_password[0]=10;
    1e2c:	e0 e6       	ldi	r30, 0x60	; 96
    1e2e:	f2 e0       	ldi	r31, 0x02	; 2
    1e30:	8a e0       	ldi	r24, 0x0A	; 10
    1e32:	80 83       	st	Z, r24
			bufer_password[1]=10;
    1e34:	81 83       	std	Z+1, r24	; 0x01
			bufer_password[2]=10;
    1e36:	82 83       	std	Z+2, r24	; 0x02
			bufer_password[3]=10;
    1e38:	83 83       	std	Z+3, r24	; 0x03
			break;
    1e3a:	51 c0       	rjmp	.+162    	; 0x1ede <Set_password_user+0x15a>
			case 11:
			if(bufer_password[3]<10){
    1e3c:	80 91 63 02 	lds	r24, 0x0263	; 0x800263 <bufer_password+0x3>
    1e40:	8a 30       	cpi	r24, 0x0A	; 10
    1e42:	08 f0       	brcs	.+2      	; 0x1e46 <Set_password_user+0xc2>
    1e44:	4c c0       	rjmp	.+152    	; 0x1ede <Set_password_user+0x15a>
				page=4;
    1e46:	84 e0       	ldi	r24, 0x04	; 4
    1e48:	80 93 e9 06 	sts	0x06E9, r24	; 0x8006e9 <page>
				user_password[0]=bufer_password[0];
    1e4c:	c0 e6       	ldi	r28, 0x60	; 96
    1e4e:	d2 e0       	ldi	r29, 0x02	; 2
    1e50:	88 81       	ld	r24, Y
    1e52:	0c ed       	ldi	r16, 0xDC	; 220
    1e54:	16 e0       	ldi	r17, 0x06	; 6
    1e56:	f8 01       	movw	r30, r16
    1e58:	80 83       	st	Z, r24
				user_password[1]=bufer_password[1];
    1e5a:	89 81       	ldd	r24, Y+1	; 0x01
    1e5c:	81 83       	std	Z+1, r24	; 0x01
				user_password[2]=bufer_password[2];
    1e5e:	8a 81       	ldd	r24, Y+2	; 0x02
    1e60:	82 83       	std	Z+2, r24	; 0x02
				user_password[3]=bufer_password[3];
    1e62:	8b 81       	ldd	r24, Y+3	; 0x03
    1e64:	83 83       	std	Z+3, r24	; 0x03
				write_eeprom(0x60,user_password[0]);
    1e66:	60 81       	ld	r22, Z
    1e68:	80 e6       	ldi	r24, 0x60	; 96
    1e6a:	0e 94 43 07 	call	0xe86	; 0xe86 <write_eeprom>
				write_eeprom(0x61,user_password[1]);
    1e6e:	f8 01       	movw	r30, r16
    1e70:	61 81       	ldd	r22, Z+1	; 0x01
    1e72:	81 e6       	ldi	r24, 0x61	; 97
    1e74:	0e 94 43 07 	call	0xe86	; 0xe86 <write_eeprom>
				write_eeprom(0x62,user_password[2]);
    1e78:	f8 01       	movw	r30, r16
    1e7a:	62 81       	ldd	r22, Z+2	; 0x02
    1e7c:	82 e6       	ldi	r24, 0x62	; 98
    1e7e:	0e 94 43 07 	call	0xe86	; 0xe86 <write_eeprom>
				write_eeprom(0x63,user_password[3]);
    1e82:	f8 01       	movw	r30, r16
    1e84:	63 81       	ldd	r22, Z+3	; 0x03
    1e86:	83 e6       	ldi	r24, 0x63	; 99
    1e88:	0e 94 43 07 	call	0xe86	; 0xe86 <write_eeprom>
				bufer_password[0]=10;
    1e8c:	8a e0       	ldi	r24, 0x0A	; 10
    1e8e:	88 83       	st	Y, r24
				bufer_password[1]=10;
    1e90:	89 83       	std	Y+1, r24	; 0x01
				bufer_password[2]=10;
    1e92:	8a 83       	std	Y+2, r24	; 0x02
				bufer_password[3]=10;
    1e94:	8b 83       	std	Y+3, r24	; 0x03
    1e96:	23 c0       	rjmp	.+70     	; 0x1ede <Set_password_user+0x15a>
			}
			break;
			default:
			if(bufer_password[0]==10)bufer_password[0]=BUTTON;
    1e98:	80 91 60 02 	lds	r24, 0x0260	; 0x800260 <bufer_password>
    1e9c:	8a 30       	cpi	r24, 0x0A	; 10
    1e9e:	29 f4       	brne	.+10     	; 0x1eaa <Set_password_user+0x126>
    1ea0:	80 91 68 02 	lds	r24, 0x0268	; 0x800268 <BUTTON>
    1ea4:	80 93 60 02 	sts	0x0260, r24	; 0x800260 <bufer_password>
    1ea8:	1a c0       	rjmp	.+52     	; 0x1ede <Set_password_user+0x15a>
			else if(bufer_password[1]==10)bufer_password[1]=BUTTON;
    1eaa:	80 91 61 02 	lds	r24, 0x0261	; 0x800261 <bufer_password+0x1>
    1eae:	8a 30       	cpi	r24, 0x0A	; 10
    1eb0:	29 f4       	brne	.+10     	; 0x1ebc <Set_password_user+0x138>
    1eb2:	80 91 68 02 	lds	r24, 0x0268	; 0x800268 <BUTTON>
    1eb6:	80 93 61 02 	sts	0x0261, r24	; 0x800261 <bufer_password+0x1>
    1eba:	11 c0       	rjmp	.+34     	; 0x1ede <Set_password_user+0x15a>
			else if(bufer_password[2]==10)bufer_password[2]=BUTTON;
    1ebc:	80 91 62 02 	lds	r24, 0x0262	; 0x800262 <bufer_password+0x2>
    1ec0:	8a 30       	cpi	r24, 0x0A	; 10
    1ec2:	29 f4       	brne	.+10     	; 0x1ece <Set_password_user+0x14a>
    1ec4:	80 91 68 02 	lds	r24, 0x0268	; 0x800268 <BUTTON>
    1ec8:	80 93 62 02 	sts	0x0262, r24	; 0x800262 <bufer_password+0x2>
    1ecc:	08 c0       	rjmp	.+16     	; 0x1ede <Set_password_user+0x15a>
			else if(bufer_password[3]==10)bufer_password[3]=BUTTON;
    1ece:	80 91 63 02 	lds	r24, 0x0263	; 0x800263 <bufer_password+0x3>
    1ed2:	8a 30       	cpi	r24, 0x0A	; 10
    1ed4:	21 f4       	brne	.+8      	; 0x1ede <Set_password_user+0x15a>
    1ed6:	80 91 68 02 	lds	r24, 0x0268	; 0x800268 <BUTTON>
    1eda:	80 93 63 02 	sts	0x0263, r24	; 0x800263 <bufer_password+0x3>
			break;
		}
		BUT_FIX=2;
    1ede:	82 e0       	ldi	r24, 0x02	; 2
    1ee0:	80 93 ea 06 	sts	0x06EA, r24	; 0x8006ea <BUT_FIX>
		update=1;
    1ee4:	81 e0       	ldi	r24, 0x01	; 1
    1ee6:	80 93 e8 06 	sts	0x06E8, r24	; 0x8006e8 <update>
	}
}
    1eea:	df 91       	pop	r29
    1eec:	cf 91       	pop	r28
    1eee:	1f 91       	pop	r17
    1ef0:	0f 91       	pop	r16
    1ef2:	08 95       	ret

00001ef4 <Activate_EMZ>:

void Activate_EMZ(void){
    1ef4:	cf 93       	push	r28
	uint8_t EMZ_num=big_digit_1*10+big_digit_2-1;
    1ef6:	90 91 67 02 	lds	r25, 0x0267	; 0x800267 <big_digit_1>
    1efa:	80 91 66 02 	lds	r24, 0x0266	; 0x800266 <big_digit_2>
    1efe:	99 0f       	add	r25, r25
    1f00:	c9 2f       	mov	r28, r25
    1f02:	cc 0f       	add	r28, r28
    1f04:	cc 0f       	add	r28, r28
    1f06:	9c 0f       	add	r25, r28
    1f08:	81 50       	subi	r24, 0x01	; 1
    1f0a:	c9 2f       	mov	r28, r25
    1f0c:	c8 0f       	add	r28, r24
	if(update){
    1f0e:	80 91 e8 06 	lds	r24, 0x06E8	; 0x8006e8 <update>
    1f12:	88 23       	and	r24, r24
    1f14:	09 f4       	brne	.+2      	; 0x1f18 <Activate_EMZ+0x24>
    1f16:	42 c0       	rjmp	.+132    	; 0x1f9c <Activate_EMZ+0xa8>
		lcd_clean();
    1f18:	0e 94 36 06 	call	0xc6c	; 0xc6c <lcd_clean>
		lcd_set_string("Номер ЭМЗ",36,0);
    1f1c:	40 e0       	ldi	r20, 0x00	; 0
    1f1e:	64 e2       	ldi	r22, 0x24	; 36
    1f20:	8e e8       	ldi	r24, 0x8E	; 142
    1f22:	94 e0       	ldi	r25, 0x04	; 4
    1f24:	0e 94 99 06 	call	0xd32	; 0xd32 <lcd_set_string>
		lcd_set_string("*-Отмена",0,7);
    1f28:	47 e0       	ldi	r20, 0x07	; 7
    1f2a:	60 e0       	ldi	r22, 0x00	; 0
    1f2c:	89 e8       	ldi	r24, 0x89	; 137
    1f2e:	92 e0       	ldi	r25, 0x02	; 2
    1f30:	0e 94 99 06 	call	0xd32	; 0xd32 <lcd_set_string>
		if(big_digit_1<10)lcd_set_big_digit(big_digit_1,1);
    1f34:	80 91 67 02 	lds	r24, 0x0267	; 0x800267 <big_digit_1>
    1f38:	8a 30       	cpi	r24, 0x0A	; 10
    1f3a:	28 f4       	brcc	.+10     	; 0x1f46 <Activate_EMZ+0x52>
    1f3c:	80 91 67 02 	lds	r24, 0x0267	; 0x800267 <big_digit_1>
    1f40:	61 e0       	ldi	r22, 0x01	; 1
    1f42:	0e 94 b5 06 	call	0xd6a	; 0xd6a <lcd_set_big_digit>
		if(big_digit_2<10){
    1f46:	80 91 66 02 	lds	r24, 0x0266	; 0x800266 <big_digit_2>
    1f4a:	8a 30       	cpi	r24, 0x0A	; 10
    1f4c:	28 f5       	brcc	.+74     	; 0x1f98 <Activate_EMZ+0xa4>
			lcd_set_big_digit(big_digit_2,2);
    1f4e:	80 91 66 02 	lds	r24, 0x0266	; 0x800266 <big_digit_2>
    1f52:	62 e0       	ldi	r22, 0x02	; 2
    1f54:	0e 94 b5 06 	call	0xd6a	; 0xd6a <lcd_set_big_digit>
			if(EMZ.status[EMZ_num]==DISCONNECT){
    1f58:	ec 2f       	mov	r30, r28
    1f5a:	f0 e0       	ldi	r31, 0x00	; 0
    1f5c:	e0 50       	subi	r30, 0x00	; 0
    1f5e:	ff 4f       	sbci	r31, 0xFF	; 255
    1f60:	80 81       	ld	r24, Z
    1f62:	84 34       	cpi	r24, 0x44	; 68
    1f64:	69 f4       	brne	.+26     	; 0x1f80 <Activate_EMZ+0x8c>
				lcd_set_string("Отключен",39,5);
    1f66:	45 e0       	ldi	r20, 0x05	; 5
    1f68:	67 e2       	ldi	r22, 0x27	; 39
    1f6a:	88 e9       	ldi	r24, 0x98	; 152
    1f6c:	94 e0       	ldi	r25, 0x04	; 4
    1f6e:	0e 94 99 06 	call	0xd32	; 0xd32 <lcd_set_string>
				lcd_set_string("#-Включить",66,7);
    1f72:	47 e0       	ldi	r20, 0x07	; 7
    1f74:	62 e4       	ldi	r22, 0x42	; 66
    1f76:	81 ea       	ldi	r24, 0xA1	; 161
    1f78:	94 e0       	ldi	r25, 0x04	; 4
    1f7a:	0e 94 99 06 	call	0xd32	; 0xd32 <lcd_set_string>
    1f7e:	0c c0       	rjmp	.+24     	; 0x1f98 <Activate_EMZ+0xa4>
			}
			else{
				lcd_set_string("Включен",42,5);
    1f80:	45 e0       	ldi	r20, 0x05	; 5
    1f82:	6a e2       	ldi	r22, 0x2A	; 42
    1f84:	8c ea       	ldi	r24, 0xAC	; 172
    1f86:	94 e0       	ldi	r25, 0x04	; 4
    1f88:	0e 94 99 06 	call	0xd32	; 0xd32 <lcd_set_string>
				lcd_set_string("#-Отключить",60,7);
    1f8c:	47 e0       	ldi	r20, 0x07	; 7
    1f8e:	6c e3       	ldi	r22, 0x3C	; 60
    1f90:	84 eb       	ldi	r24, 0xB4	; 180
    1f92:	94 e0       	ldi	r25, 0x04	; 4
    1f94:	0e 94 99 06 	call	0xd32	; 0xd32 <lcd_set_string>
			}
		}
		update=0;
    1f98:	10 92 e8 06 	sts	0x06E8, r1	; 0x8006e8 <update>
	}
	if(BUT_FIX==1){
    1f9c:	80 91 ea 06 	lds	r24, 0x06EA	; 0x8006ea <BUT_FIX>
    1fa0:	81 30       	cpi	r24, 0x01	; 1
    1fa2:	09 f0       	breq	.+2      	; 0x1fa6 <Activate_EMZ+0xb2>
    1fa4:	7c c0       	rjmp	.+248    	; 0x209e <Activate_EMZ+0x1aa>
		switch(BUTTON){
    1fa6:	80 91 68 02 	lds	r24, 0x0268	; 0x800268 <BUTTON>
    1faa:	8a 30       	cpi	r24, 0x0A	; 10
    1fac:	19 f0       	breq	.+6      	; 0x1fb4 <Activate_EMZ+0xc0>
    1fae:	8b 30       	cpi	r24, 0x0B	; 11
    1fb0:	51 f0       	breq	.+20     	; 0x1fc6 <Activate_EMZ+0xd2>
    1fb2:	2a c0       	rjmp	.+84     	; 0x2008 <Activate_EMZ+0x114>
			case 10:
			page=4;
    1fb4:	84 e0       	ldi	r24, 0x04	; 4
    1fb6:	80 93 e9 06 	sts	0x06E9, r24	; 0x8006e9 <page>
			big_digit_1=10;
    1fba:	8a e0       	ldi	r24, 0x0A	; 10
    1fbc:	80 93 67 02 	sts	0x0267, r24	; 0x800267 <big_digit_1>
			big_digit_2=10;
    1fc0:	80 93 66 02 	sts	0x0266, r24	; 0x800266 <big_digit_2>
			break;
    1fc4:	66 c0       	rjmp	.+204    	; 0x2092 <Activate_EMZ+0x19e>
			case 11:
			if(big_digit_2<10){
    1fc6:	80 91 66 02 	lds	r24, 0x0266	; 0x800266 <big_digit_2>
    1fca:	8a 30       	cpi	r24, 0x0A	; 10
    1fcc:	08 f0       	brcs	.+2      	; 0x1fd0 <Activate_EMZ+0xdc>
    1fce:	61 c0       	rjmp	.+194    	; 0x2092 <Activate_EMZ+0x19e>
				if(EMZ.status[EMZ_num]==DISCONNECT){
    1fd0:	8c 2f       	mov	r24, r28
    1fd2:	90 e0       	ldi	r25, 0x00	; 0
    1fd4:	fc 01       	movw	r30, r24
    1fd6:	e0 50       	subi	r30, 0x00	; 0
    1fd8:	ff 4f       	sbci	r31, 0xFF	; 255
    1fda:	20 81       	ld	r18, Z
    1fdc:	24 34       	cpi	r18, 0x44	; 68
    1fde:	51 f4       	brne	.+20     	; 0x1ff4 <Activate_EMZ+0x100>
					EMZ.status[EMZ_num]=BLOCK;
    1fe0:	fc 01       	movw	r30, r24
    1fe2:	e0 50       	subi	r30, 0x00	; 0
    1fe4:	ff 4f       	sbci	r31, 0xFF	; 255
    1fe6:	22 e4       	ldi	r18, 0x42	; 66
    1fe8:	20 83       	st	Z, r18
					write_eeprom(EMZ_num,BLOCK);
    1fea:	62 e4       	ldi	r22, 0x42	; 66
    1fec:	8c 2f       	mov	r24, r28
    1fee:	0e 94 43 07 	call	0xe86	; 0xe86 <write_eeprom>
    1ff2:	4f c0       	rjmp	.+158    	; 0x2092 <Activate_EMZ+0x19e>
				}
				else {
					EMZ.status[EMZ_num]=DISCONNECT;
    1ff4:	fc 01       	movw	r30, r24
    1ff6:	e0 50       	subi	r30, 0x00	; 0
    1ff8:	ff 4f       	sbci	r31, 0xFF	; 255
    1ffa:	24 e4       	ldi	r18, 0x44	; 68
    1ffc:	20 83       	st	Z, r18
					write_eeprom(EMZ_num,DISCONNECT);
    1ffe:	64 e4       	ldi	r22, 0x44	; 68
    2000:	8c 2f       	mov	r24, r28
    2002:	0e 94 43 07 	call	0xe86	; 0xe86 <write_eeprom>
    2006:	45 c0       	rjmp	.+138    	; 0x2092 <Activate_EMZ+0x19e>
				}
			}
			break;
			default:
			if(big_digit_2<10)big_digit_2=10;
    2008:	80 91 66 02 	lds	r24, 0x0266	; 0x800266 <big_digit_2>
    200c:	8a 30       	cpi	r24, 0x0A	; 10
    200e:	18 f4       	brcc	.+6      	; 0x2016 <Activate_EMZ+0x122>
    2010:	8a e0       	ldi	r24, 0x0A	; 10
    2012:	80 93 66 02 	sts	0x0266, r24	; 0x800266 <big_digit_2>
			if(big_digit_2==10){
    2016:	80 91 66 02 	lds	r24, 0x0266	; 0x800266 <big_digit_2>
    201a:	8a 30       	cpi	r24, 0x0A	; 10
    201c:	41 f4       	brne	.+16     	; 0x202e <Activate_EMZ+0x13a>
				big_digit_1=BUTTON;
    201e:	80 91 68 02 	lds	r24, 0x0268	; 0x800268 <BUTTON>
    2022:	80 93 67 02 	sts	0x0267, r24	; 0x800267 <big_digit_1>
				big_digit_2=11;
    2026:	8b e0       	ldi	r24, 0x0B	; 11
    2028:	80 93 66 02 	sts	0x0266, r24	; 0x800266 <big_digit_2>
    202c:	32 c0       	rjmp	.+100    	; 0x2092 <Activate_EMZ+0x19e>
			}
			else{
				big_digit_2=BUTTON;
    202e:	80 91 68 02 	lds	r24, 0x0268	; 0x800268 <BUTTON>
    2032:	80 93 66 02 	sts	0x0266, r24	; 0x800266 <big_digit_2>
				if((big_digit_1*10+big_digit_2>64)||(big_digit_1*10+big_digit_2==0)){
    2036:	80 91 67 02 	lds	r24, 0x0267	; 0x800267 <big_digit_1>
    203a:	20 91 66 02 	lds	r18, 0x0266	; 0x800266 <big_digit_2>
    203e:	90 e0       	ldi	r25, 0x00	; 0
    2040:	ac 01       	movw	r20, r24
    2042:	44 0f       	add	r20, r20
    2044:	55 1f       	adc	r21, r21
    2046:	88 0f       	add	r24, r24
    2048:	99 1f       	adc	r25, r25
    204a:	88 0f       	add	r24, r24
    204c:	99 1f       	adc	r25, r25
    204e:	88 0f       	add	r24, r24
    2050:	99 1f       	adc	r25, r25
    2052:	84 0f       	add	r24, r20
    2054:	95 1f       	adc	r25, r21
    2056:	82 0f       	add	r24, r18
    2058:	91 1d       	adc	r25, r1
    205a:	81 34       	cpi	r24, 0x41	; 65
    205c:	91 05       	cpc	r25, r1
    205e:	a4 f4       	brge	.+40     	; 0x2088 <Activate_EMZ+0x194>
    2060:	80 91 67 02 	lds	r24, 0x0267	; 0x800267 <big_digit_1>
    2064:	20 91 66 02 	lds	r18, 0x0266	; 0x800266 <big_digit_2>
    2068:	90 e0       	ldi	r25, 0x00	; 0
    206a:	ac 01       	movw	r20, r24
    206c:	44 0f       	add	r20, r20
    206e:	55 1f       	adc	r21, r21
    2070:	88 0f       	add	r24, r24
    2072:	99 1f       	adc	r25, r25
    2074:	88 0f       	add	r24, r24
    2076:	99 1f       	adc	r25, r25
    2078:	88 0f       	add	r24, r24
    207a:	99 1f       	adc	r25, r25
    207c:	84 0f       	add	r24, r20
    207e:	95 1f       	adc	r25, r21
    2080:	82 0f       	add	r24, r18
    2082:	91 1d       	adc	r25, r1
    2084:	89 2b       	or	r24, r25
    2086:	29 f4       	brne	.+10     	; 0x2092 <Activate_EMZ+0x19e>
					big_digit_1=10;
    2088:	8a e0       	ldi	r24, 0x0A	; 10
    208a:	80 93 67 02 	sts	0x0267, r24	; 0x800267 <big_digit_1>
					big_digit_2=10;
    208e:	80 93 66 02 	sts	0x0266, r24	; 0x800266 <big_digit_2>
				}
			}
			break;
		}
		BUT_FIX=2;
    2092:	82 e0       	ldi	r24, 0x02	; 2
    2094:	80 93 ea 06 	sts	0x06EA, r24	; 0x8006ea <BUT_FIX>
		update=1;
    2098:	81 e0       	ldi	r24, 0x01	; 1
    209a:	80 93 e8 06 	sts	0x06E8, r24	; 0x8006e8 <update>
	}
}
    209e:	cf 91       	pop	r28
    20a0:	08 95       	ret

000020a2 <Adresing_EMZ>:

void Adresing_EMZ(void){
    20a2:	ef 92       	push	r14
    20a4:	ff 92       	push	r15
    20a6:	0f 93       	push	r16
    20a8:	1f 93       	push	r17
    20aa:	cf 93       	push	r28
	uint8_t EMZ_num=big_digit_1*10+big_digit_2-1;
    20ac:	80 91 67 02 	lds	r24, 0x0267	; 0x800267 <big_digit_1>
    20b0:	90 91 66 02 	lds	r25, 0x0266	; 0x800266 <big_digit_2>
    20b4:	88 0f       	add	r24, r24
    20b6:	c8 2f       	mov	r28, r24
    20b8:	cc 0f       	add	r28, r28
    20ba:	cc 0f       	add	r28, r28
    20bc:	8c 0f       	add	r24, r28
    20be:	91 50       	subi	r25, 0x01	; 1
    20c0:	c8 2f       	mov	r28, r24
    20c2:	c9 0f       	add	r28, r25
	if(update){
    20c4:	80 91 e8 06 	lds	r24, 0x06E8	; 0x8006e8 <update>
    20c8:	88 23       	and	r24, r24
    20ca:	09 f4       	brne	.+2      	; 0x20ce <Adresing_EMZ+0x2c>
    20cc:	59 c0       	rjmp	.+178    	; 0x2180 <Adresing_EMZ+0xde>
		lcd_clean();
    20ce:	0e 94 36 06 	call	0xc6c	; 0xc6c <lcd_clean>
		lcd_set_string("Адресация ЭМЗ",24,0);
    20d2:	40 e0       	ldi	r20, 0x00	; 0
    20d4:	68 e1       	ldi	r22, 0x18	; 24
    20d6:	8a e9       	ldi	r24, 0x9A	; 154
    20d8:	93 e0       	ldi	r25, 0x03	; 3
    20da:	0e 94 99 06 	call	0xd32	; 0xd32 <lcd_set_string>
		lcd_set_string("*-Отмена",0,7);
    20de:	47 e0       	ldi	r20, 0x07	; 7
    20e0:	60 e0       	ldi	r22, 0x00	; 0
    20e2:	89 e8       	ldi	r24, 0x89	; 137
    20e4:	92 e0       	ldi	r25, 0x02	; 2
    20e6:	0e 94 99 06 	call	0xd32	; 0xd32 <lcd_set_string>
		lcd_set_string("> Номер ЭМЗ:",0,2);
    20ea:	42 e0       	ldi	r20, 0x02	; 2
    20ec:	60 e0       	ldi	r22, 0x00	; 0
    20ee:	80 ec       	ldi	r24, 0xC0	; 192
    20f0:	94 e0       	ldi	r25, 0x04	; 4
    20f2:	0e 94 99 06 	call	0xd32	; 0xd32 <lcd_set_string>
		lcd_set_string("  Адрес ЭМЗ:",0,4);
    20f6:	44 e0       	ldi	r20, 0x04	; 4
    20f8:	60 e0       	ldi	r22, 0x00	; 0
    20fa:	8d ec       	ldi	r24, 0xCD	; 205
    20fc:	94 e0       	ldi	r25, 0x04	; 4
    20fe:	0e 94 99 06 	call	0xd32	; 0xd32 <lcd_set_string>
		if(big_digit_1<10)lcd_set_ch(big_digit_1+0x30,80,2);
    2102:	80 91 67 02 	lds	r24, 0x0267	; 0x800267 <big_digit_1>
    2106:	8a 30       	cpi	r24, 0x0A	; 10
    2108:	38 f4       	brcc	.+14     	; 0x2118 <Adresing_EMZ+0x76>
    210a:	80 91 67 02 	lds	r24, 0x0267	; 0x800267 <big_digit_1>
    210e:	42 e0       	ldi	r20, 0x02	; 2
    2110:	60 e5       	ldi	r22, 0x50	; 80
    2112:	80 5d       	subi	r24, 0xD0	; 208
    2114:	0e 94 4e 06 	call	0xc9c	; 0xc9c <lcd_set_ch>
		if(big_digit_2<10){
    2118:	80 91 66 02 	lds	r24, 0x0266	; 0x800266 <big_digit_2>
    211c:	8a 30       	cpi	r24, 0x0A	; 10
    211e:	70 f5       	brcc	.+92     	; 0x217c <Adresing_EMZ+0xda>
			lcd_set_ch(big_digit_2+0x30,86,2);
    2120:	80 91 66 02 	lds	r24, 0x0266	; 0x800266 <big_digit_2>
    2124:	42 e0       	ldi	r20, 0x02	; 2
    2126:	66 e5       	ldi	r22, 0x56	; 86
    2128:	80 5d       	subi	r24, 0xD0	; 208
    212a:	0e 94 4e 06 	call	0xc9c	; 0xc9c <lcd_set_ch>
			lcd_set_ch((EMZ.position[EMZ_num]+1)/10+0x30,80,4);
    212e:	8c 2f       	mov	r24, r28
    2130:	90 e0       	ldi	r25, 0x00	; 0
    2132:	9c 01       	movw	r18, r24
    2134:	20 5e       	subi	r18, 0xE0	; 224
    2136:	3d 4f       	sbci	r19, 0xFD	; 253
    2138:	79 01       	movw	r14, r18
    213a:	f9 01       	movw	r30, r18
    213c:	80 81       	ld	r24, Z
    213e:	90 e0       	ldi	r25, 0x00	; 0
    2140:	01 96       	adiw	r24, 0x01	; 1
    2142:	0a e0       	ldi	r16, 0x0A	; 10
    2144:	10 e0       	ldi	r17, 0x00	; 0
    2146:	b8 01       	movw	r22, r16
    2148:	0e 94 96 22 	call	0x452c	; 0x452c <__divmodhi4>
    214c:	86 2f       	mov	r24, r22
    214e:	44 e0       	ldi	r20, 0x04	; 4
    2150:	60 e5       	ldi	r22, 0x50	; 80
    2152:	80 5d       	subi	r24, 0xD0	; 208
    2154:	0e 94 4e 06 	call	0xc9c	; 0xc9c <lcd_set_ch>
			lcd_set_ch((EMZ.position[EMZ_num]+1)%10+0x30,86,4);
    2158:	f7 01       	movw	r30, r14
    215a:	80 81       	ld	r24, Z
    215c:	90 e0       	ldi	r25, 0x00	; 0
    215e:	01 96       	adiw	r24, 0x01	; 1
    2160:	b8 01       	movw	r22, r16
    2162:	0e 94 96 22 	call	0x452c	; 0x452c <__divmodhi4>
    2166:	44 e0       	ldi	r20, 0x04	; 4
    2168:	66 e5       	ldi	r22, 0x56	; 86
    216a:	80 5d       	subi	r24, 0xD0	; 208
    216c:	0e 94 4e 06 	call	0xc9c	; 0xc9c <lcd_set_ch>
			lcd_set_string("#-Изменить",68,7);
    2170:	47 e0       	ldi	r20, 0x07	; 7
    2172:	64 e4       	ldi	r22, 0x44	; 68
    2174:	8a ed       	ldi	r24, 0xDA	; 218
    2176:	94 e0       	ldi	r25, 0x04	; 4
    2178:	0e 94 99 06 	call	0xd32	; 0xd32 <lcd_set_string>
		}
		update=0;
    217c:	10 92 e8 06 	sts	0x06E8, r1	; 0x8006e8 <update>
	}
	if(BUT_FIX==1){
    2180:	80 91 ea 06 	lds	r24, 0x06EA	; 0x8006ea <BUT_FIX>
    2184:	81 30       	cpi	r24, 0x01	; 1
    2186:	09 f0       	breq	.+2      	; 0x218a <Adresing_EMZ+0xe8>
    2188:	6b c0       	rjmp	.+214    	; 0x2260 <Adresing_EMZ+0x1be>
		switch(BUTTON){
    218a:	80 91 68 02 	lds	r24, 0x0268	; 0x800268 <BUTTON>
    218e:	8a 30       	cpi	r24, 0x0A	; 10
    2190:	19 f0       	breq	.+6      	; 0x2198 <Adresing_EMZ+0xf6>
    2192:	8b 30       	cpi	r24, 0x0B	; 11
    2194:	51 f0       	breq	.+20     	; 0x21aa <Adresing_EMZ+0x108>
    2196:	19 c0       	rjmp	.+50     	; 0x21ca <Adresing_EMZ+0x128>
			case 10:
			page=4;
    2198:	84 e0       	ldi	r24, 0x04	; 4
    219a:	80 93 e9 06 	sts	0x06E9, r24	; 0x8006e9 <page>
			big_digit_1=10;
    219e:	8a e0       	ldi	r24, 0x0A	; 10
    21a0:	80 93 67 02 	sts	0x0267, r24	; 0x800267 <big_digit_1>
			big_digit_2=10;
    21a4:	80 93 66 02 	sts	0x0266, r24	; 0x800266 <big_digit_2>
			break;
    21a8:	55 c0       	rjmp	.+170    	; 0x2254 <Adresing_EMZ+0x1b2>
			case 11:
			if(big_digit_2<10){
    21aa:	80 91 66 02 	lds	r24, 0x0266	; 0x800266 <big_digit_2>
    21ae:	8a 30       	cpi	r24, 0x0A	; 10
    21b0:	08 f0       	brcs	.+2      	; 0x21b4 <Adresing_EMZ+0x112>
    21b2:	50 c0       	rjmp	.+160    	; 0x2254 <Adresing_EMZ+0x1b2>
				page=45;
    21b4:	8d e2       	ldi	r24, 0x2D	; 45
    21b6:	80 93 e9 06 	sts	0x06E9, r24	; 0x8006e9 <page>
				lcd_bufer[0]=EMZ_num;
    21ba:	c0 93 ed 06 	sts	0x06ED, r28	; 0x8006ed <lcd_bufer>
				big_digit_1=10;
    21be:	8a e0       	ldi	r24, 0x0A	; 10
    21c0:	80 93 67 02 	sts	0x0267, r24	; 0x800267 <big_digit_1>
				big_digit_2=10;
    21c4:	80 93 66 02 	sts	0x0266, r24	; 0x800266 <big_digit_2>
    21c8:	45 c0       	rjmp	.+138    	; 0x2254 <Adresing_EMZ+0x1b2>
			}
			break;
			default:
			if(big_digit_2<10)big_digit_2=10;
    21ca:	80 91 66 02 	lds	r24, 0x0266	; 0x800266 <big_digit_2>
    21ce:	8a 30       	cpi	r24, 0x0A	; 10
    21d0:	18 f4       	brcc	.+6      	; 0x21d8 <Adresing_EMZ+0x136>
    21d2:	8a e0       	ldi	r24, 0x0A	; 10
    21d4:	80 93 66 02 	sts	0x0266, r24	; 0x800266 <big_digit_2>
			if(big_digit_2==10){
    21d8:	80 91 66 02 	lds	r24, 0x0266	; 0x800266 <big_digit_2>
    21dc:	8a 30       	cpi	r24, 0x0A	; 10
    21de:	41 f4       	brne	.+16     	; 0x21f0 <Adresing_EMZ+0x14e>
				big_digit_1=BUTTON;
    21e0:	80 91 68 02 	lds	r24, 0x0268	; 0x800268 <BUTTON>
    21e4:	80 93 67 02 	sts	0x0267, r24	; 0x800267 <big_digit_1>
				big_digit_2=11;
    21e8:	8b e0       	ldi	r24, 0x0B	; 11
    21ea:	80 93 66 02 	sts	0x0266, r24	; 0x800266 <big_digit_2>
    21ee:	32 c0       	rjmp	.+100    	; 0x2254 <Adresing_EMZ+0x1b2>
			}
			else{
				big_digit_2=BUTTON;
    21f0:	80 91 68 02 	lds	r24, 0x0268	; 0x800268 <BUTTON>
    21f4:	80 93 66 02 	sts	0x0266, r24	; 0x800266 <big_digit_2>
				if((big_digit_1*10+big_digit_2>64)||(big_digit_1*10+big_digit_2==0)){
    21f8:	80 91 67 02 	lds	r24, 0x0267	; 0x800267 <big_digit_1>
    21fc:	20 91 66 02 	lds	r18, 0x0266	; 0x800266 <big_digit_2>
    2200:	90 e0       	ldi	r25, 0x00	; 0
    2202:	ac 01       	movw	r20, r24
    2204:	44 0f       	add	r20, r20
    2206:	55 1f       	adc	r21, r21
    2208:	88 0f       	add	r24, r24
    220a:	99 1f       	adc	r25, r25
    220c:	88 0f       	add	r24, r24
    220e:	99 1f       	adc	r25, r25
    2210:	88 0f       	add	r24, r24
    2212:	99 1f       	adc	r25, r25
    2214:	84 0f       	add	r24, r20
    2216:	95 1f       	adc	r25, r21
    2218:	82 0f       	add	r24, r18
    221a:	91 1d       	adc	r25, r1
    221c:	81 34       	cpi	r24, 0x41	; 65
    221e:	91 05       	cpc	r25, r1
    2220:	a4 f4       	brge	.+40     	; 0x224a <Adresing_EMZ+0x1a8>
    2222:	80 91 67 02 	lds	r24, 0x0267	; 0x800267 <big_digit_1>
    2226:	20 91 66 02 	lds	r18, 0x0266	; 0x800266 <big_digit_2>
    222a:	90 e0       	ldi	r25, 0x00	; 0
    222c:	ac 01       	movw	r20, r24
    222e:	44 0f       	add	r20, r20
    2230:	55 1f       	adc	r21, r21
    2232:	88 0f       	add	r24, r24
    2234:	99 1f       	adc	r25, r25
    2236:	88 0f       	add	r24, r24
    2238:	99 1f       	adc	r25, r25
    223a:	88 0f       	add	r24, r24
    223c:	99 1f       	adc	r25, r25
    223e:	84 0f       	add	r24, r20
    2240:	95 1f       	adc	r25, r21
    2242:	82 0f       	add	r24, r18
    2244:	91 1d       	adc	r25, r1
    2246:	89 2b       	or	r24, r25
    2248:	29 f4       	brne	.+10     	; 0x2254 <Adresing_EMZ+0x1b2>
					big_digit_1=10;
    224a:	8a e0       	ldi	r24, 0x0A	; 10
    224c:	80 93 67 02 	sts	0x0267, r24	; 0x800267 <big_digit_1>
					big_digit_2=10;
    2250:	80 93 66 02 	sts	0x0266, r24	; 0x800266 <big_digit_2>
				}
			}
			break;
		}
		BUT_FIX=2;
    2254:	82 e0       	ldi	r24, 0x02	; 2
    2256:	80 93 ea 06 	sts	0x06EA, r24	; 0x8006ea <BUT_FIX>
		update=1;
    225a:	81 e0       	ldi	r24, 0x01	; 1
    225c:	80 93 e8 06 	sts	0x06E8, r24	; 0x8006e8 <update>
	}
}
    2260:	cf 91       	pop	r28
    2262:	1f 91       	pop	r17
    2264:	0f 91       	pop	r16
    2266:	ff 90       	pop	r15
    2268:	ef 90       	pop	r14
    226a:	08 95       	ret

0000226c <Adresing_EMZ_2>:

void Adresing_EMZ_2(void){
    226c:	ef 92       	push	r14
    226e:	ff 92       	push	r15
    2270:	0f 93       	push	r16
    2272:	1f 93       	push	r17
    2274:	cf 93       	push	r28
    2276:	df 93       	push	r29
	uint8_t EMZ_num=lcd_bufer[0];
    2278:	c0 91 ed 06 	lds	r28, 0x06ED	; 0x8006ed <lcd_bufer>
	uint8_t EMZ_adress=EMZ.position[EMZ_num];
    227c:	0c 2f       	mov	r16, r28
    227e:	10 e0       	ldi	r17, 0x00	; 0
	if(update){
    2280:	90 91 e8 06 	lds	r25, 0x06E8	; 0x8006e8 <update>
    2284:	99 23       	and	r25, r25
    2286:	09 f4       	brne	.+2      	; 0x228a <Adresing_EMZ_2+0x1e>
    2288:	4c c0       	rjmp	.+152    	; 0x2322 <Adresing_EMZ_2+0xb6>
		lcd_clean();
    228a:	0e 94 36 06 	call	0xc6c	; 0xc6c <lcd_clean>
		lcd_set_string("Адресация ЭМЗ",24,0);
    228e:	40 e0       	ldi	r20, 0x00	; 0
    2290:	68 e1       	ldi	r22, 0x18	; 24
    2292:	8a e9       	ldi	r24, 0x9A	; 154
    2294:	93 e0       	ldi	r25, 0x03	; 3
    2296:	0e 94 99 06 	call	0xd32	; 0xd32 <lcd_set_string>
		lcd_set_string("*-Отмена",0,7);
    229a:	47 e0       	ldi	r20, 0x07	; 7
    229c:	60 e0       	ldi	r22, 0x00	; 0
    229e:	89 e8       	ldi	r24, 0x89	; 137
    22a0:	92 e0       	ldi	r25, 0x02	; 2
    22a2:	0e 94 99 06 	call	0xd32	; 0xd32 <lcd_set_string>
		lcd_set_string("  Номер ЭМЗ:",0,2);
    22a6:	42 e0       	ldi	r20, 0x02	; 2
    22a8:	60 e0       	ldi	r22, 0x00	; 0
    22aa:	85 ee       	ldi	r24, 0xE5	; 229
    22ac:	94 e0       	ldi	r25, 0x04	; 4
    22ae:	0e 94 99 06 	call	0xd32	; 0xd32 <lcd_set_string>
		lcd_set_ch((EMZ_num+1)/10+0x30,80,2);
    22b2:	c8 01       	movw	r24, r16
    22b4:	01 96       	adiw	r24, 0x01	; 1
    22b6:	6a e0       	ldi	r22, 0x0A	; 10
    22b8:	70 e0       	ldi	r23, 0x00	; 0
    22ba:	0e 94 96 22 	call	0x452c	; 0x452c <__divmodhi4>
    22be:	96 2f       	mov	r25, r22
    22c0:	d8 2f       	mov	r29, r24
    22c2:	42 e0       	ldi	r20, 0x02	; 2
    22c4:	60 e5       	ldi	r22, 0x50	; 80
    22c6:	80 e3       	ldi	r24, 0x30	; 48
    22c8:	89 0f       	add	r24, r25
    22ca:	0e 94 4e 06 	call	0xc9c	; 0xc9c <lcd_set_ch>
		lcd_set_ch((EMZ_num+1)%10+0x30,86,2);
    22ce:	42 e0       	ldi	r20, 0x02	; 2
    22d0:	66 e5       	ldi	r22, 0x56	; 86
    22d2:	80 e3       	ldi	r24, 0x30	; 48
    22d4:	8d 0f       	add	r24, r29
    22d6:	0e 94 4e 06 	call	0xc9c	; 0xc9c <lcd_set_ch>
		lcd_set_string("> Адрес ЭМЗ:",0,4);
    22da:	44 e0       	ldi	r20, 0x04	; 4
    22dc:	60 e0       	ldi	r22, 0x00	; 0
    22de:	82 ef       	ldi	r24, 0xF2	; 242
    22e0:	94 e0       	ldi	r25, 0x04	; 4
    22e2:	0e 94 99 06 	call	0xd32	; 0xd32 <lcd_set_string>
		if(big_digit_1<10)lcd_set_ch(big_digit_1+0x30,80,4);
    22e6:	80 91 67 02 	lds	r24, 0x0267	; 0x800267 <big_digit_1>
    22ea:	8a 30       	cpi	r24, 0x0A	; 10
    22ec:	38 f4       	brcc	.+14     	; 0x22fc <Adresing_EMZ_2+0x90>
    22ee:	80 91 67 02 	lds	r24, 0x0267	; 0x800267 <big_digit_1>
    22f2:	44 e0       	ldi	r20, 0x04	; 4
    22f4:	60 e5       	ldi	r22, 0x50	; 80
    22f6:	80 5d       	subi	r24, 0xD0	; 208
    22f8:	0e 94 4e 06 	call	0xc9c	; 0xc9c <lcd_set_ch>
		if(big_digit_2<10){
    22fc:	80 91 66 02 	lds	r24, 0x0266	; 0x800266 <big_digit_2>
    2300:	8a 30       	cpi	r24, 0x0A	; 10
    2302:	68 f4       	brcc	.+26     	; 0x231e <Adresing_EMZ_2+0xb2>
			lcd_set_ch(big_digit_2+0x30,86,4);
    2304:	80 91 66 02 	lds	r24, 0x0266	; 0x800266 <big_digit_2>
    2308:	44 e0       	ldi	r20, 0x04	; 4
    230a:	66 e5       	ldi	r22, 0x56	; 86
    230c:	80 5d       	subi	r24, 0xD0	; 208
    230e:	0e 94 4e 06 	call	0xc9c	; 0xc9c <lcd_set_ch>
			lcd_set_string("#-Изменить",68,7);
    2312:	47 e0       	ldi	r20, 0x07	; 7
    2314:	64 e4       	ldi	r22, 0x44	; 68
    2316:	8a ed       	ldi	r24, 0xDA	; 218
    2318:	94 e0       	ldi	r25, 0x04	; 4
    231a:	0e 94 99 06 	call	0xd32	; 0xd32 <lcd_set_string>
		}
		update=0;
    231e:	10 92 e8 06 	sts	0x06E8, r1	; 0x8006e8 <update>
	}
	if(BUT_FIX==1){
    2322:	90 91 ea 06 	lds	r25, 0x06EA	; 0x8006ea <BUT_FIX>
    2326:	91 30       	cpi	r25, 0x01	; 1
    2328:	09 f0       	breq	.+2      	; 0x232c <Adresing_EMZ_2+0xc0>
    232a:	a8 c0       	rjmp	.+336    	; 0x247c <Adresing_EMZ_2+0x210>
		switch(BUTTON){
    232c:	80 91 68 02 	lds	r24, 0x0268	; 0x800268 <BUTTON>
    2330:	8a 30       	cpi	r24, 0x0A	; 10
    2332:	19 f0       	breq	.+6      	; 0x233a <Adresing_EMZ_2+0xce>
    2334:	8b 30       	cpi	r24, 0x0B	; 11
    2336:	79 f0       	breq	.+30     	; 0x2356 <Adresing_EMZ_2+0xea>
    2338:	56 c0       	rjmp	.+172    	; 0x23e6 <Adresing_EMZ_2+0x17a>
			case 10:
			page=44;
    233a:	8c e2       	ldi	r24, 0x2C	; 44
    233c:	80 93 e9 06 	sts	0x06E9, r24	; 0x8006e9 <page>
			big_digit_1=(EMZ_num+1)/10;
    2340:	c8 01       	movw	r24, r16
    2342:	01 96       	adiw	r24, 0x01	; 1
    2344:	6a e0       	ldi	r22, 0x0A	; 10
    2346:	70 e0       	ldi	r23, 0x00	; 0
    2348:	0e 94 96 22 	call	0x452c	; 0x452c <__divmodhi4>
    234c:	60 93 67 02 	sts	0x0267, r22	; 0x800267 <big_digit_1>
			big_digit_2=(EMZ_num+1)%10;
    2350:	80 93 66 02 	sts	0x0266, r24	; 0x800266 <big_digit_2>
			break;
    2354:	8d c0       	rjmp	.+282    	; 0x2470 <Adresing_EMZ_2+0x204>
			case 11:
			if(big_digit_2<10){
    2356:	80 91 66 02 	lds	r24, 0x0266	; 0x800266 <big_digit_2>
    235a:	8a 30       	cpi	r24, 0x0A	; 10
    235c:	08 f0       	brcs	.+2      	; 0x2360 <Adresing_EMZ_2+0xf4>
    235e:	88 c0       	rjmp	.+272    	; 0x2470 <Adresing_EMZ_2+0x204>
				page=44;
    2360:	8c e2       	ldi	r24, 0x2C	; 44
    2362:	80 93 e9 06 	sts	0x06E9, r24	; 0x8006e9 <page>
				EMZ_adress=(big_digit_1*10)+big_digit_2-1;
    2366:	80 91 67 02 	lds	r24, 0x0267	; 0x800267 <big_digit_1>
    236a:	90 91 66 02 	lds	r25, 0x0266	; 0x800266 <big_digit_2>
    236e:	88 0f       	add	r24, r24
    2370:	28 2f       	mov	r18, r24
    2372:	22 0f       	add	r18, r18
    2374:	22 0f       	add	r18, r18
    2376:	82 0f       	add	r24, r18
    2378:	89 0f       	add	r24, r25
    237a:	ee 24       	eor	r14, r14
    237c:	ea 94       	dec	r14
    237e:	e8 0e       	add	r14, r24
				uint8_t a=EMZ.position[EMZ_num];
    2380:	f8 01       	movw	r30, r16
    2382:	e0 5e       	subi	r30, 0xE0	; 224
    2384:	fd 4f       	sbci	r31, 0xFD	; 253
    2386:	f0 80       	ld	r15, Z
				EMZ.position[EMZ_num]=EMZ_adress;
    2388:	e0 82       	st	Z, r14
				uint8_t b=EMZ.adress[EMZ_adress];
    238a:	ee 2d       	mov	r30, r14
    238c:	f0 e0       	ldi	r31, 0x00	; 0
    238e:	e0 52       	subi	r30, 0x20	; 32
    2390:	fe 4f       	sbci	r31, 0xFE	; 254
    2392:	d0 81       	ld	r29, Z
				EMZ.adress[EMZ_adress]=EMZ_num;
    2394:	c0 83       	st	Z, r28
				EMZ.adress[a]=b;
    2396:	ef 2d       	mov	r30, r15
    2398:	f0 e0       	ldi	r31, 0x00	; 0
    239a:	e0 52       	subi	r30, 0x20	; 32
    239c:	fe 4f       	sbci	r31, 0xFE	; 254
    239e:	d0 83       	st	Z, r29
				EMZ.position[b]=a;
    23a0:	ed 2f       	mov	r30, r29
    23a2:	f0 e0       	ldi	r31, 0x00	; 0
    23a4:	e0 5e       	subi	r30, 0xE0	; 224
    23a6:	fd 4f       	sbci	r31, 0xFD	; 253
    23a8:	f0 82       	st	Z, r15
				write_eeprom(0x80+EMZ_adress,EMZ_num);
    23aa:	6c 2f       	mov	r22, r28
    23ac:	81 58       	subi	r24, 0x81	; 129
    23ae:	0e 94 43 07 	call	0xe86	; 0xe86 <write_eeprom>
				write_eeprom(0xC0+EMZ_num,EMZ_adress);
    23b2:	6e 2d       	mov	r22, r14
    23b4:	80 ec       	ldi	r24, 0xC0	; 192
    23b6:	8c 0f       	add	r24, r28
    23b8:	0e 94 43 07 	call	0xe86	; 0xe86 <write_eeprom>
				write_eeprom(0x80+a,b);
    23bc:	6d 2f       	mov	r22, r29
    23be:	80 e8       	ldi	r24, 0x80	; 128
    23c0:	8f 0d       	add	r24, r15
    23c2:	0e 94 43 07 	call	0xe86	; 0xe86 <write_eeprom>
				write_eeprom(0xC0+b,a);
    23c6:	6f 2d       	mov	r22, r15
    23c8:	80 ec       	ldi	r24, 0xC0	; 192
    23ca:	8d 0f       	add	r24, r29
    23cc:	0e 94 43 07 	call	0xe86	; 0xe86 <write_eeprom>
				big_digit_1=(EMZ_num+1)/10;
    23d0:	c8 01       	movw	r24, r16
    23d2:	01 96       	adiw	r24, 0x01	; 1
    23d4:	6a e0       	ldi	r22, 0x0A	; 10
    23d6:	70 e0       	ldi	r23, 0x00	; 0
    23d8:	0e 94 96 22 	call	0x452c	; 0x452c <__divmodhi4>
    23dc:	60 93 67 02 	sts	0x0267, r22	; 0x800267 <big_digit_1>
				big_digit_2=(EMZ_num+1)%10;
    23e0:	80 93 66 02 	sts	0x0266, r24	; 0x800266 <big_digit_2>
    23e4:	45 c0       	rjmp	.+138    	; 0x2470 <Adresing_EMZ_2+0x204>
				
			}
			break;
			default:
			if(big_digit_2<10)big_digit_2=10;
    23e6:	80 91 66 02 	lds	r24, 0x0266	; 0x800266 <big_digit_2>
    23ea:	8a 30       	cpi	r24, 0x0A	; 10
    23ec:	18 f4       	brcc	.+6      	; 0x23f4 <Adresing_EMZ_2+0x188>
    23ee:	8a e0       	ldi	r24, 0x0A	; 10
    23f0:	80 93 66 02 	sts	0x0266, r24	; 0x800266 <big_digit_2>
			if(big_digit_2==10){
    23f4:	80 91 66 02 	lds	r24, 0x0266	; 0x800266 <big_digit_2>
    23f8:	8a 30       	cpi	r24, 0x0A	; 10
    23fa:	41 f4       	brne	.+16     	; 0x240c <Adresing_EMZ_2+0x1a0>
				big_digit_1=BUTTON;
    23fc:	80 91 68 02 	lds	r24, 0x0268	; 0x800268 <BUTTON>
    2400:	80 93 67 02 	sts	0x0267, r24	; 0x800267 <big_digit_1>
				big_digit_2=11;
    2404:	8b e0       	ldi	r24, 0x0B	; 11
    2406:	80 93 66 02 	sts	0x0266, r24	; 0x800266 <big_digit_2>
    240a:	32 c0       	rjmp	.+100    	; 0x2470 <Adresing_EMZ_2+0x204>
			}
			else{
				big_digit_2=BUTTON;
    240c:	80 91 68 02 	lds	r24, 0x0268	; 0x800268 <BUTTON>
    2410:	80 93 66 02 	sts	0x0266, r24	; 0x800266 <big_digit_2>
				if((big_digit_1*10+big_digit_2>64)||(big_digit_1*10+big_digit_2==0)){
    2414:	80 91 67 02 	lds	r24, 0x0267	; 0x800267 <big_digit_1>
    2418:	20 91 66 02 	lds	r18, 0x0266	; 0x800266 <big_digit_2>
    241c:	90 e0       	ldi	r25, 0x00	; 0
    241e:	ac 01       	movw	r20, r24
    2420:	44 0f       	add	r20, r20
    2422:	55 1f       	adc	r21, r21
    2424:	88 0f       	add	r24, r24
    2426:	99 1f       	adc	r25, r25
    2428:	88 0f       	add	r24, r24
    242a:	99 1f       	adc	r25, r25
    242c:	88 0f       	add	r24, r24
    242e:	99 1f       	adc	r25, r25
    2430:	84 0f       	add	r24, r20
    2432:	95 1f       	adc	r25, r21
    2434:	82 0f       	add	r24, r18
    2436:	91 1d       	adc	r25, r1
    2438:	81 34       	cpi	r24, 0x41	; 65
    243a:	91 05       	cpc	r25, r1
    243c:	a4 f4       	brge	.+40     	; 0x2466 <Adresing_EMZ_2+0x1fa>
    243e:	80 91 67 02 	lds	r24, 0x0267	; 0x800267 <big_digit_1>
    2442:	20 91 66 02 	lds	r18, 0x0266	; 0x800266 <big_digit_2>
    2446:	90 e0       	ldi	r25, 0x00	; 0
    2448:	ac 01       	movw	r20, r24
    244a:	44 0f       	add	r20, r20
    244c:	55 1f       	adc	r21, r21
    244e:	88 0f       	add	r24, r24
    2450:	99 1f       	adc	r25, r25
    2452:	88 0f       	add	r24, r24
    2454:	99 1f       	adc	r25, r25
    2456:	88 0f       	add	r24, r24
    2458:	99 1f       	adc	r25, r25
    245a:	84 0f       	add	r24, r20
    245c:	95 1f       	adc	r25, r21
    245e:	82 0f       	add	r24, r18
    2460:	91 1d       	adc	r25, r1
    2462:	89 2b       	or	r24, r25
    2464:	29 f4       	brne	.+10     	; 0x2470 <Adresing_EMZ_2+0x204>
					big_digit_1=10;
    2466:	8a e0       	ldi	r24, 0x0A	; 10
    2468:	80 93 67 02 	sts	0x0267, r24	; 0x800267 <big_digit_1>
					big_digit_2=10;
    246c:	80 93 66 02 	sts	0x0266, r24	; 0x800266 <big_digit_2>
				}
			}
			break;
		}
		BUT_FIX=2;
    2470:	82 e0       	ldi	r24, 0x02	; 2
    2472:	80 93 ea 06 	sts	0x06EA, r24	; 0x8006ea <BUT_FIX>
		update=1;
    2476:	81 e0       	ldi	r24, 0x01	; 1
    2478:	80 93 e8 06 	sts	0x06E8, r24	; 0x8006e8 <update>
	}
}
    247c:	df 91       	pop	r29
    247e:	cf 91       	pop	r28
    2480:	1f 91       	pop	r17
    2482:	0f 91       	pop	r16
    2484:	ff 90       	pop	r15
    2486:	ef 90       	pop	r14
    2488:	08 95       	ret

0000248a <Error_wireles>:
		BUT_FIX=2;
	}
}*/

void Error_wireles(void){
	if(update){
    248a:	80 91 e8 06 	lds	r24, 0x06E8	; 0x8006e8 <update>
    248e:	88 23       	and	r24, r24
    2490:	09 f1       	breq	.+66     	; 0x24d4 <Error_wireles+0x4a>
		lcd_clean();
    2492:	0e 94 36 06 	call	0xc6c	; 0xc6c <lcd_clean>
		lcd_set_string("Нет связи",36,2);
    2496:	42 e0       	ldi	r20, 0x02	; 2
    2498:	64 e2       	ldi	r22, 0x24	; 36
    249a:	85 ee       	ldi	r24, 0xE5	; 229
    249c:	92 e0       	ldi	r25, 0x02	; 2
    249e:	0e 94 99 06 	call	0xd32	; 0xd32 <lcd_set_string>
		lcd_set_string("с пультом",36,4);
    24a2:	44 e0       	ldi	r20, 0x04	; 4
    24a4:	64 e2       	ldi	r22, 0x24	; 36
    24a6:	8f ef       	ldi	r24, 0xFF	; 255
    24a8:	94 e0       	ldi	r25, 0x04	; 4
    24aa:	0e 94 99 06 	call	0xd32	; 0xd32 <lcd_set_string>
		if(PU_mode==DPNK)lcd_set_string("ДК",57,6);
    24ae:	80 91 eb 06 	lds	r24, 0x06EB	; 0x8006eb <PU_mode>
    24b2:	81 30       	cpi	r24, 0x01	; 1
    24b4:	39 f4       	brne	.+14     	; 0x24c4 <Error_wireles+0x3a>
    24b6:	46 e0       	ldi	r20, 0x06	; 6
    24b8:	69 e3       	ldi	r22, 0x39	; 57
    24ba:	80 e7       	ldi	r24, 0x70	; 112
    24bc:	92 e0       	ldi	r25, 0x02	; 2
    24be:	0e 94 99 06 	call	0xd32	; 0xd32 <lcd_set_string>
    24c2:	06 c0       	rjmp	.+12     	; 0x24d0 <Error_wireles+0x46>
		else lcd_set_string("ДПНК",51,6);
    24c4:	46 e0       	ldi	r20, 0x06	; 6
    24c6:	63 e3       	ldi	r22, 0x33	; 51
    24c8:	8a e6       	ldi	r24, 0x6A	; 106
    24ca:	94 e0       	ldi	r25, 0x04	; 4
    24cc:	0e 94 99 06 	call	0xd32	; 0xd32 <lcd_set_string>
		//lcd_set_string("Заблокирован",27,6);
		//lcd_set_string("*-отмена       #-ввод",0,7);
		update=0;
    24d0:	10 92 e8 06 	sts	0x06E8, r1	; 0x8006e8 <update>
	}
	if(BUT_FIX==1){
    24d4:	80 91 ea 06 	lds	r24, 0x06EA	; 0x8006ea <BUT_FIX>
    24d8:	81 30       	cpi	r24, 0x01	; 1
    24da:	89 f4       	brne	.+34     	; 0x24fe <Error_wireles+0x74>
		if(PU_mode==DK){
    24dc:	80 91 eb 06 	lds	r24, 0x06EB	; 0x8006eb <PU_mode>
    24e0:	81 11       	cpse	r24, r1
    24e2:	07 c0       	rjmp	.+14     	; 0x24f2 <Error_wireles+0x68>
			if(BUTTON==10)page=2;
    24e4:	80 91 68 02 	lds	r24, 0x0268	; 0x800268 <BUTTON>
    24e8:	8a 30       	cpi	r24, 0x0A	; 10
    24ea:	19 f4       	brne	.+6      	; 0x24f2 <Error_wireles+0x68>
    24ec:	82 e0       	ldi	r24, 0x02	; 2
    24ee:	80 93 e9 06 	sts	0x06E9, r24	; 0x8006e9 <page>
		}
		BUT_FIX=2;
    24f2:	82 e0       	ldi	r24, 0x02	; 2
    24f4:	80 93 ea 06 	sts	0x06EA, r24	; 0x8006ea <BUT_FIX>
		update=1;
    24f8:	81 e0       	ldi	r24, 0x01	; 1
    24fa:	80 93 e8 06 	sts	0x06E8, r24	; 0x8006e8 <update>
    24fe:	08 95       	ret

00002500 <__vector_20>:
#include "Functions.h"
#include "LCDmenu.h"


//прерывание по приему UART
ISR(USART0_RX_vect){
    2500:	1f 92       	push	r1
    2502:	0f 92       	push	r0
    2504:	0f b6       	in	r0, 0x3f	; 63
    2506:	0f 92       	push	r0
    2508:	11 24       	eor	r1, r1
    250a:	8f 93       	push	r24
    250c:	ef 93       	push	r30
    250e:	ff 93       	push	r31
	bufer=UDR0;
    2510:	80 91 c6 00 	lds	r24, 0x00C6	; 0x8000c6 <__TEXT_REGION_LENGTH__+0x7e00c6>
    2514:	80 93 e3 06 	sts	0x06E3, r24	; 0x8006e3 <bufer>
	if(bufer==START_BYTE){
    2518:	80 91 e3 06 	lds	r24, 0x06E3	; 0x8006e3 <bufer>
    251c:	8a 33       	cpi	r24, 0x3A	; 58
    251e:	69 f4       	brne	.+26     	; 0x253a <__vector_20+0x3a>
		package[1]=0;
    2520:	e2 ef       	ldi	r30, 0xF2	; 242
    2522:	f6 e0       	ldi	r31, 0x06	; 6
    2524:	11 82       	std	Z+1, r1	; 0x01
		package[2]=0;
    2526:	12 82       	std	Z+2, r1	; 0x02
		package[7]=0;
    2528:	17 82       	std	Z+7, r1	; 0x07
		package[8]=0;
    252a:	10 86       	std	Z+8, r1	; 0x08
		package[9]=0;
    252c:	11 86       	std	Z+9, r1	; 0x09
		package[74]=0;
    252e:	10 92 3c 07 	sts	0x073C, r1	; 0x80073c <package+0x4a>
		package[75]=0;
    2532:	10 92 3d 07 	sts	0x073D, r1	; 0x80073d <package+0x4b>
		RX_index=0;
    2536:	10 92 e2 06 	sts	0x06E2, r1	; 0x8006e2 <RX_index>
	}
	if(RX_index<76){
    253a:	80 91 e2 06 	lds	r24, 0x06E2	; 0x8006e2 <RX_index>
    253e:	8c 34       	cpi	r24, 0x4C	; 76
    2540:	68 f4       	brcc	.+26     	; 0x255c <__vector_20+0x5c>
		package[RX_index]=bufer;
    2542:	e0 91 e2 06 	lds	r30, 0x06E2	; 0x8006e2 <RX_index>
    2546:	f0 e0       	ldi	r31, 0x00	; 0
    2548:	80 91 e3 06 	lds	r24, 0x06E3	; 0x8006e3 <bufer>
    254c:	ee 50       	subi	r30, 0x0E	; 14
    254e:	f9 4f       	sbci	r31, 0xF9	; 249
    2550:	80 83       	st	Z, r24
		RX_index++;
    2552:	80 91 e2 06 	lds	r24, 0x06E2	; 0x8006e2 <RX_index>
    2556:	8f 5f       	subi	r24, 0xFF	; 255
    2558:	80 93 e2 06 	sts	0x06E2, r24	; 0x8006e2 <RX_index>
	}
}
    255c:	ff 91       	pop	r31
    255e:	ef 91       	pop	r30
    2560:	8f 91       	pop	r24
    2562:	0f 90       	pop	r0
    2564:	0f be       	out	0x3f, r0	; 63
    2566:	0f 90       	pop	r0
    2568:	1f 90       	pop	r1
    256a:	18 95       	reti

0000256c <__vector_18>:

//прерывание по таймеру 0
ISR(TIMER0_OVF_vect){
    256c:	1f 92       	push	r1
    256e:	0f 92       	push	r0
    2570:	0f b6       	in	r0, 0x3f	; 63
    2572:	0f 92       	push	r0
    2574:	11 24       	eor	r1, r1
    2576:	8f 93       	push	r24
	if(beep_time){
    2578:	80 91 e7 06 	lds	r24, 0x06E7	; 0x8006e7 <beep_time>
    257c:	88 23       	and	r24, r24
    257e:	59 f0       	breq	.+22     	; 0x2596 <__vector_18+0x2a>
		beep_time--;
    2580:	80 91 e7 06 	lds	r24, 0x06E7	; 0x8006e7 <beep_time>
    2584:	81 50       	subi	r24, 0x01	; 1
    2586:	80 93 e7 06 	sts	0x06E7, r24	; 0x8006e7 <beep_time>
		if(beep_time==10)PORTC&=~(1<<PORTC0);
    258a:	80 91 e7 06 	lds	r24, 0x06E7	; 0x8006e7 <beep_time>
    258e:	8a 30       	cpi	r24, 0x0A	; 10
    2590:	51 f4       	brne	.+20     	; 0x25a6 <__vector_18+0x3a>
    2592:	40 98       	cbi	0x08, 0	; 8
    2594:	08 c0       	rjmp	.+16     	; 0x25a6 <__vector_18+0x3a>
	}
	else{
		if(alarm==ON){
    2596:	80 91 d1 06 	lds	r24, 0x06D1	; 0x8006d1 <alarm>
    259a:	81 30       	cpi	r24, 0x01	; 1
    259c:	21 f4       	brne	.+8      	; 0x25a6 <__vector_18+0x3a>
			PORTC|=(1<<PORTC0);
    259e:	40 9a       	sbi	0x08, 0	; 8
			beep_time=20;
    25a0:	84 e1       	ldi	r24, 0x14	; 20
    25a2:	80 93 e7 06 	sts	0x06E7, r24	; 0x8006e7 <beep_time>
		}
	}
}
    25a6:	8f 91       	pop	r24
    25a8:	0f 90       	pop	r0
    25aa:	0f be       	out	0x3f, r0	; 63
    25ac:	0f 90       	pop	r0
    25ae:	1f 90       	pop	r1
    25b0:	18 95       	reti

000025b2 <__vector_15>:


//прерывание по таймеру 1
ISR (TIMER1_OVF_vect){
    25b2:	1f 92       	push	r1
    25b4:	0f 92       	push	r0
    25b6:	0f b6       	in	r0, 0x3f	; 63
    25b8:	0f 92       	push	r0
    25ba:	11 24       	eor	r1, r1
    25bc:	8f 93       	push	r24
    25be:	9f 93       	push	r25
	if(LCD_led_timer){
    25c0:	80 91 cd 06 	lds	r24, 0x06CD	; 0x8006cd <LCD_led_timer>
    25c4:	88 23       	and	r24, r24
    25c6:	31 f0       	breq	.+12     	; 0x25d4 <__vector_15+0x22>
		LCD_led_timer--;
    25c8:	80 91 cd 06 	lds	r24, 0x06CD	; 0x8006cd <LCD_led_timer>
    25cc:	81 50       	subi	r24, 0x01	; 1
    25ce:	80 93 cd 06 	sts	0x06CD, r24	; 0x8006cd <LCD_led_timer>
    25d2:	07 c0       	rjmp	.+14     	; 0x25e2 <__vector_15+0x30>
	}
	else if(!led_use)led_use=1;
    25d4:	80 91 cc 06 	lds	r24, 0x06CC	; 0x8006cc <__data_end>
    25d8:	81 11       	cpse	r24, r1
    25da:	03 c0       	rjmp	.+6      	; 0x25e2 <__vector_15+0x30>
    25dc:	81 e0       	ldi	r24, 0x01	; 1
    25de:	80 93 cc 06 	sts	0x06CC, r24	; 0x8006cc <__data_end>
	if(PU_mode==DK){
    25e2:	80 91 eb 06 	lds	r24, 0x06EB	; 0x8006eb <PU_mode>
    25e6:	81 11       	cpse	r24, r1
    25e8:	0d c0       	rjmp	.+26     	; 0x2604 <__vector_15+0x52>
		if(alarm_timer_off)alarm_timer_off--;
    25ea:	80 91 d0 06 	lds	r24, 0x06D0	; 0x8006d0 <alarm_timer_off>
    25ee:	88 23       	and	r24, r24
    25f0:	31 f0       	breq	.+12     	; 0x25fe <__vector_15+0x4c>
    25f2:	80 91 d0 06 	lds	r24, 0x06D0	; 0x8006d0 <alarm_timer_off>
    25f6:	81 50       	subi	r24, 0x01	; 1
    25f8:	80 93 d0 06 	sts	0x06D0, r24	; 0x8006d0 <alarm_timer_off>
    25fc:	03 c0       	rjmp	.+6      	; 0x2604 <__vector_15+0x52>
		else{
			alarm=OFF;
    25fe:	10 92 d1 06 	sts	0x06D1, r1	; 0x8006d1 <alarm>
			PORTD&=~(1<<PORTD4);
    2602:	5c 98       	cbi	0x0b, 4	; 11
		}
	}
	if(timer_DPNK)timer_DPNK--;
    2604:	80 91 d6 06 	lds	r24, 0x06D6	; 0x8006d6 <timer_DPNK>
    2608:	88 23       	and	r24, r24
    260a:	29 f0       	breq	.+10     	; 0x2616 <__vector_15+0x64>
    260c:	80 91 d6 06 	lds	r24, 0x06D6	; 0x8006d6 <timer_DPNK>
    2610:	81 50       	subi	r24, 0x01	; 1
    2612:	80 93 d6 06 	sts	0x06D6, r24	; 0x8006d6 <timer_DPNK>
	TCNT1=3035;
    2616:	8b ed       	ldi	r24, 0xDB	; 219
    2618:	9b e0       	ldi	r25, 0x0B	; 11
    261a:	90 93 85 00 	sts	0x0085, r25	; 0x800085 <__TEXT_REGION_LENGTH__+0x7e0085>
    261e:	80 93 84 00 	sts	0x0084, r24	; 0x800084 <__TEXT_REGION_LENGTH__+0x7e0084>
}
    2622:	9f 91       	pop	r25
    2624:	8f 91       	pop	r24
    2626:	0f 90       	pop	r0
    2628:	0f be       	out	0x3f, r0	; 63
    262a:	0f 90       	pop	r0
    262c:	1f 90       	pop	r1
    262e:	18 95       	reti

00002630 <__vector_11>:

//прерывание по таймеру 2
ISR (TIMER2_OVF_vect){
    2630:	1f 92       	push	r1
    2632:	0f 92       	push	r0
    2634:	0f b6       	in	r0, 0x3f	; 63
    2636:	0f 92       	push	r0
    2638:	11 24       	eor	r1, r1
    263a:	8f 93       	push	r24
	if(timer)timer--;
    263c:	80 91 ec 06 	lds	r24, 0x06EC	; 0x8006ec <timer>
    2640:	88 23       	and	r24, r24
    2642:	31 f0       	breq	.+12     	; 0x2650 <__vector_11+0x20>
    2644:	80 91 ec 06 	lds	r24, 0x06EC	; 0x8006ec <timer>
    2648:	81 50       	subi	r24, 0x01	; 1
    264a:	80 93 ec 06 	sts	0x06EC, r24	; 0x8006ec <timer>
    264e:	02 c0       	rjmp	.+4      	; 0x2654 <__vector_11+0x24>
	else {
		TIMSK2=OFF;
    2650:	10 92 70 00 	sts	0x0070, r1	; 0x800070 <__TEXT_REGION_LENGTH__+0x7e0070>
	}
}
    2654:	8f 91       	pop	r24
    2656:	0f 90       	pop	r0
    2658:	0f be       	out	0x3f, r0	; 63
    265a:	0f 90       	pop	r0
    265c:	1f 90       	pop	r1
    265e:	18 95       	reti

00002660 <main>:

int main(void)
{
	DDRA=0b11111111;
    2660:	8f ef       	ldi	r24, 0xFF	; 255
    2662:	81 b9       	out	0x01, r24	; 1
	DDRB=0b00011100;
    2664:	8c e1       	ldi	r24, 0x1C	; 28
    2666:	84 b9       	out	0x04, r24	; 4
	DDRC=0b01111111;
    2668:	8f e7       	ldi	r24, 0x7F	; 127
    266a:	87 b9       	out	0x07, r24	; 7
	DDRD=0b00010110;
    266c:	86 e1       	ldi	r24, 0x16	; 22
    266e:	8a b9       	out	0x0a, r24	; 10
	PORTD=0b00001001;
    2670:	89 e0       	ldi	r24, 0x09	; 9
    2672:	8b b9       	out	0x0b, r24	; 11
	PORTB|=0b01100011;
    2674:	85 b1       	in	r24, 0x05	; 5
    2676:	83 66       	ori	r24, 0x63	; 99
    2678:	85 b9       	out	0x05, r24	; 5
	
	//--------Настройка таймера 2-------------------------------------
	TCCR2A = 0b00000000;        // нормальный режим
    267a:	10 92 b0 00 	sts	0x00B0, r1	; 0x8000b0 <__TEXT_REGION_LENGTH__+0x7e00b0>
	TCCR2B = 0b00000100;        // предделитель
    267e:	94 e0       	ldi	r25, 0x04	; 4
    2680:	90 93 b1 00 	sts	0x00B1, r25	; 0x8000b1 <__TEXT_REGION_LENGTH__+0x7e00b1>
	TIMSK2=OFF;					
    2684:	10 92 70 00 	sts	0x0070, r1	; 0x800070 <__TEXT_REGION_LENGTH__+0x7e0070>
	
	TCCR1A = 0b00000000;        // нормальный режим
    2688:	10 92 80 00 	sts	0x0080, r1	; 0x800080 <__TEXT_REGION_LENGTH__+0x7e0080>
	TCCR1B = 0b00000011;        // предделитель
    268c:	83 e0       	ldi	r24, 0x03	; 3
    268e:	80 93 81 00 	sts	0x0081, r24	; 0x800081 <__TEXT_REGION_LENGTH__+0x7e0081>
	TCCR1C = 0b00000000;		//
    2692:	10 92 82 00 	sts	0x0082, r1	; 0x800082 <__TEXT_REGION_LENGTH__+0x7e0082>
	TIMSK1=ON;					
    2696:	81 e0       	ldi	r24, 0x01	; 1
    2698:	80 93 6f 00 	sts	0x006F, r24	; 0x80006f <__TEXT_REGION_LENGTH__+0x7e006f>

	
	//--------Настройка таймера 0-------------------------------------
	TCCR0A = 0b00000000;        // нормальный режим
    269c:	14 bc       	out	0x24, r1	; 36
	TCCR0B = 0b00000100;        // предделитель
    269e:	95 bd       	out	0x25, r25	; 37
	TIMSK0 = ON;		
    26a0:	80 93 6e 00 	sts	0x006E, r24	; 0x80006e <__TEXT_REGION_LENGTH__+0x7e006e>
	#else
		//round up by default
		__ticks_dc = (uint32_t)(ceil(fabs(__tmp)));
	#endif

	__builtin_avr_delay_cycles(__ticks_dc);
    26a4:	2f ef       	ldi	r18, 0xFF	; 255
    26a6:	39 e6       	ldi	r19, 0x69	; 105
    26a8:	88 e1       	ldi	r24, 0x18	; 24
    26aa:	21 50       	subi	r18, 0x01	; 1
    26ac:	30 40       	sbci	r19, 0x00	; 0
    26ae:	80 40       	sbci	r24, 0x00	; 0
    26b0:	e1 f7       	brne	.-8      	; 0x26aa <main+0x4a>
    26b2:	00 c0       	rjmp	.+0      	; 0x26b4 <main+0x54>
    26b4:	00 00       	nop

	_delay_ms(500);
	
	PU_mode=(PIND>>PIND3)&1;
    26b6:	89 b1       	in	r24, 0x09	; 9
    26b8:	83 fb       	bst	r24, 3
    26ba:	88 27       	eor	r24, r24
    26bc:	80 f9       	bld	r24, 0
    26be:	80 93 eb 06 	sts	0x06EB, r24	; 0x8006eb <PU_mode>
	
	if(!PU_mode){
    26c2:	80 91 eb 06 	lds	r24, 0x06EB	; 0x8006eb <PU_mode>
    26c6:	81 11       	cpse	r24, r1
    26c8:	4e c0       	rjmp	.+156    	; 0x2766 <main+0x106>
		admin_password[0]=read_eeprom(0x50);
    26ca:	80 e5       	ldi	r24, 0x50	; 80
    26cc:	0e 94 4e 07 	call	0xe9c	; 0xe9c <read_eeprom>
    26d0:	c8 ed       	ldi	r28, 0xD8	; 216
    26d2:	d6 e0       	ldi	r29, 0x06	; 6
    26d4:	88 83       	st	Y, r24
		admin_password[1]=read_eeprom(0x51);
    26d6:	81 e5       	ldi	r24, 0x51	; 81
    26d8:	0e 94 4e 07 	call	0xe9c	; 0xe9c <read_eeprom>
    26dc:	89 83       	std	Y+1, r24	; 0x01
		admin_password[2]=read_eeprom(0x52);
    26de:	82 e5       	ldi	r24, 0x52	; 82
    26e0:	0e 94 4e 07 	call	0xe9c	; 0xe9c <read_eeprom>
    26e4:	8a 83       	std	Y+2, r24	; 0x02
		admin_password[3]=read_eeprom(0x53);
    26e6:	83 e5       	ldi	r24, 0x53	; 83
    26e8:	0e 94 4e 07 	call	0xe9c	; 0xe9c <read_eeprom>
    26ec:	8b 83       	std	Y+3, r24	; 0x03

		user_password[0]=read_eeprom(0x60);
    26ee:	80 e6       	ldi	r24, 0x60	; 96
    26f0:	0e 94 4e 07 	call	0xe9c	; 0xe9c <read_eeprom>
    26f4:	cc ed       	ldi	r28, 0xDC	; 220
    26f6:	d6 e0       	ldi	r29, 0x06	; 6
    26f8:	88 83       	st	Y, r24
		user_password[1]=read_eeprom(0x61);
    26fa:	81 e6       	ldi	r24, 0x61	; 97
    26fc:	0e 94 4e 07 	call	0xe9c	; 0xe9c <read_eeprom>
    2700:	89 83       	std	Y+1, r24	; 0x01
		user_password[2]=read_eeprom(0x62);
    2702:	82 e6       	ldi	r24, 0x62	; 98
    2704:	0e 94 4e 07 	call	0xe9c	; 0xe9c <read_eeprom>
    2708:	8a 83       	std	Y+2, r24	; 0x02
		user_password[3]=read_eeprom(0x63);
    270a:	83 e6       	ldi	r24, 0x63	; 99
    270c:	0e 94 4e 07 	call	0xe9c	; 0xe9c <read_eeprom>
    2710:	8b 83       	std	Y+3, r24	; 0x03
		
		alarm_time=read_eeprom(0x70);
    2712:	80 e7       	ldi	r24, 0x70	; 112
    2714:	0e 94 4e 07 	call	0xe9c	; 0xe9c <read_eeprom>
    2718:	80 93 d2 06 	sts	0x06D2, r24	; 0x8006d2 <alarm_time>
		sistem_mode=read_eeprom(0x71);
    271c:	81 e7       	ldi	r24, 0x71	; 113
    271e:	0e 94 4e 07 	call	0xe9c	; 0xe9c <read_eeprom>
    2722:	80 93 69 02 	sts	0x0269, r24	; 0x800269 <sistem_mode>
    2726:	0f 2e       	mov	r0, r31
    2728:	f0 e0       	ldi	r31, 0x00	; 0
    272a:	ef 2e       	mov	r14, r31
    272c:	f1 e0       	ldi	r31, 0x01	; 1
    272e:	ff 2e       	mov	r15, r31
    2730:	f0 2d       	mov	r31, r0
    2732:	00 ee       	ldi	r16, 0xE0	; 224
    2734:	11 e0       	ldi	r17, 0x01	; 1
		
		for(uint8_t i=0;i<64;i++){
    2736:	c0 e0       	ldi	r28, 0x00	; 0
			EMZ.status[i]=read_eeprom(i);
    2738:	8c 2f       	mov	r24, r28
    273a:	0e 94 4e 07 	call	0xe9c	; 0xe9c <read_eeprom>
    273e:	d7 01       	movw	r26, r14
    2740:	8d 93       	st	X+, r24
    2742:	7d 01       	movw	r14, r26
			EMZ.adress[i]=read_eeprom(i+0x80);
    2744:	80 e8       	ldi	r24, 0x80	; 128
    2746:	8c 0f       	add	r24, r28
    2748:	0e 94 4e 07 	call	0xe9c	; 0xe9c <read_eeprom>
    274c:	f8 01       	movw	r30, r16
    274e:	81 93       	st	Z+, r24
    2750:	8f 01       	movw	r16, r30
			EMZ.position[i]=read_eeprom(i+0xC0);
    2752:	80 ec       	ldi	r24, 0xC0	; 192
    2754:	8c 0f       	add	r24, r28
    2756:	0e 94 4e 07 	call	0xe9c	; 0xe9c <read_eeprom>
    275a:	d8 01       	movw	r26, r16
    275c:	df 96       	adiw	r26, 0x3f	; 63
    275e:	8c 93       	st	X, r24
		user_password[3]=read_eeprom(0x63);
		
		alarm_time=read_eeprom(0x70);
		sistem_mode=read_eeprom(0x71);
		
		for(uint8_t i=0;i<64;i++){
    2760:	cf 5f       	subi	r28, 0xFF	; 255
    2762:	c0 34       	cpi	r28, 0x40	; 64
    2764:	49 f7       	brne	.-46     	; 0x2738 <main+0xd8>
			EMZ.adress[i]=read_eeprom(i+0x80);
			EMZ.position[i]=read_eeprom(i+0xC0);
		}
	}
	
	sei();						//запрет прерываний
    2766:	78 94       	sei
	PORTC|=(1<<PORTC0);			
    2768:	40 9a       	sbi	0x08, 0	; 8
	beep_time=20;				//звуковой сигнал
    276a:	84 e1       	ldi	r24, 0x14	; 20
    276c:	80 93 e7 06 	sts	0x06E7, r24	; 0x8006e7 <beep_time>
	lcd_LED(ON);				//включение подсветки дисплея
    2770:	81 e0       	ldi	r24, 0x01	; 1
    2772:	0e 94 d1 05 	call	0xba2	; 0xba2 <lcd_LED>
	lcd_init();					//инициализация дисплея
    2776:	0e 94 25 06 	call	0xc4a	; 0xc4a <lcd_init>
	SetLOGO();					//вывод логотипа
    277a:	0e 94 58 07 	call	0xeb0	; 0xeb0 <SetLOGO>
	
	update=1;
    277e:	81 e0       	ldi	r24, 0x01	; 1
    2780:	80 93 e8 06 	sts	0x06E8, r24	; 0x8006e8 <update>
	
	
	USART_init();				//инициализация UART
    2784:	0e 94 a6 05 	call	0xb4c	; 0xb4c <USART_init>
	UART_byte=0;
    2788:	10 92 e5 06 	sts	0x06E5, r1	; 0x8006e5 <UART_byte>
	if(PU_mode)	transmit=0;
    278c:	80 91 eb 06 	lds	r24, 0x06EB	; 0x8006eb <PU_mode>
    2790:	88 23       	and	r24, r24
    2792:	19 f0       	breq	.+6      	; 0x279a <main+0x13a>
    2794:	10 92 e6 06 	sts	0x06E6, r1	; 0x8006e6 <transmit>
    2798:	03 c0       	rjmp	.+6      	; 0x27a0 <main+0x140>
	else transmit=1;
    279a:	81 e0       	ldi	r24, 0x01	; 1
    279c:	80 93 e6 06 	sts	0x06E6, r24	; 0x8006e6 <transmit>
	RS485_OFF;
    27a0:	5a 98       	cbi	0x0b, 2	; 11
							UDR0=0x00;
							UART_byte++;
						}
						break;
					case 14:						// выключение передатчика
						if(UCSR0A & (1<<UDRE0)){
    27a2:	00 ec       	ldi	r16, 0xC0	; 192
    27a4:	10 e0       	ldi	r17, 0x00	; 0
							UART_byte++;
						}
						break;
					case 13:						// продувка линии
						if(UCSR0A & (1<<UDRE0)){
							UDR0=0x00;
    27a6:	c6 ec       	ldi	r28, 0xC6	; 198
    27a8:	d0 e0       	ldi	r29, 0x00	; 0
				}
				else if(page==5){
					page=0;
					update=1;
				}
				if(((package[74]<<4)|package[75])==STOP_BYTE){
    27aa:	0f 2e       	mov	r0, r31
    27ac:	fc e3       	ldi	r31, 0x3C	; 60
    27ae:	8f 2e       	mov	r8, r31
    27b0:	f7 e0       	ldi	r31, 0x07	; 7
    27b2:	9f 2e       	mov	r9, r31
    27b4:	f0 2d       	mov	r31, r0
    27b6:	0f 2e       	mov	r0, r31
    27b8:	fd e3       	ldi	r31, 0x3D	; 61
    27ba:	6f 2e       	mov	r6, r31
    27bc:	f7 e0       	ldi	r31, 0x07	; 7
    27be:	7f 2e       	mov	r7, r31
    27c0:	f0 2d       	mov	r31, r0
									timer_DPNK=5;
								}
							}
						}
					}
					package[1]=0;
    27c2:	0f 2e       	mov	r0, r31
    27c4:	f2 ef       	ldi	r31, 0xF2	; 242
    27c6:	af 2e       	mov	r10, r31
    27c8:	f6 e0       	ldi	r31, 0x06	; 6
    27ca:	bf 2e       	mov	r11, r31
    27cc:	f0 2d       	mov	r31, r0
									if(package[67]==open_EMZ)open_EMZ=32;
								}
								for(uint8_t i=0;i<32;i++){
									EMZ.status[i+32]=package[i*2+3];
									EMZ.cap[i+32]=package[i*2+4];
									transmit=1;
    27ce:	55 24       	eor	r5, r5
    27d0:	53 94       	inc	r5
    27d2:	45 2c       	mov	r4, r5
									UART_byte=0;
									timer_DPNK=5;
    27d4:	0f 2e       	mov	r0, r31
    27d6:	f5 e0       	ldi	r31, 0x05	; 5
    27d8:	3f 2e       	mov	r3, r31
    27da:	f0 2d       	mov	r31, r0
							}
						}
						else if(((package[1]-0x30)*10)+(package[2]-0x30)==64){
							if(sistem_mode){
								if(open_EMZ<32){
									if(package[67]==open_EMZ)open_EMZ=32;
    27dc:	0f 2e       	mov	r0, r31
    27de:	f5 e3       	ldi	r31, 0x35	; 53
    27e0:	ef 2e       	mov	r14, r31
    27e2:	f7 e0       	ldi	r31, 0x07	; 7
    27e4:	ff 2e       	mov	r15, r31
    27e6:	f0 2d       	mov	r31, r0
									EMZ.status[i]=package[i*2+3];
									EMZ.cap[i]=package[i*2+4];
								}
								DPNK_BLOCK=package[67];
								if(DPNK_BLOCK==BLOCK)open_EMZ=32;
								user_password[0]=package[69]-0x30;
    27e8:	0f 2e       	mov	r0, r31
    27ea:	f7 e3       	ldi	r31, 0x37	; 55
    27ec:	cf 2e       	mov	r12, r31
    27ee:	f7 e0       	ldi	r31, 0x07	; 7
    27f0:	df 2e       	mov	r13, r31
    27f2:	f0 2d       	mov	r31, r0
	else transmit=1;
	RS485_OFF;
	
	while (1)
	{
		if(PU_mode==DPNK){
    27f4:	80 91 eb 06 	lds	r24, 0x06EB	; 0x8006eb <PU_mode>
    27f8:	81 30       	cpi	r24, 0x01	; 1
    27fa:	09 f0       	breq	.+2      	; 0x27fe <main+0x19e>
    27fc:	4f c2       	rjmp	.+1182   	; 0x2c9c <main+0x63c>
			if(!transmit){
    27fe:	80 91 e6 06 	lds	r24, 0x06E6	; 0x8006e6 <transmit>
    2802:	81 11       	cpse	r24, r1
    2804:	03 c1       	rjmp	.+518    	; 0x2a0c <main+0x3ac>
				if(!timer_DPNK){
    2806:	80 91 d6 06 	lds	r24, 0x06D6	; 0x8006d6 <timer_DPNK>
    280a:	81 11       	cpse	r24, r1
    280c:	09 c0       	rjmp	.+18     	; 0x2820 <main+0x1c0>
					if(page!=5)update=1;
    280e:	80 91 e9 06 	lds	r24, 0x06E9	; 0x8006e9 <page>
    2812:	85 30       	cpi	r24, 0x05	; 5
    2814:	11 f0       	breq	.+4      	; 0x281a <main+0x1ba>
    2816:	40 92 e8 06 	sts	0x06E8, r4	; 0x8006e8 <update>
					page=5;
    281a:	30 92 e9 06 	sts	0x06E9, r3	; 0x8006e9 <page>
    281e:	08 c0       	rjmp	.+16     	; 0x2830 <main+0x1d0>
				}
				else if(page==5){
    2820:	80 91 e9 06 	lds	r24, 0x06E9	; 0x8006e9 <page>
    2824:	85 30       	cpi	r24, 0x05	; 5
    2826:	21 f4       	brne	.+8      	; 0x2830 <main+0x1d0>
					page=0;
    2828:	10 92 e9 06 	sts	0x06E9, r1	; 0x8006e9 <page>
					update=1;
    282c:	40 92 e8 06 	sts	0x06E8, r4	; 0x8006e8 <update>
				}
				if(((package[74]<<4)|package[75])==STOP_BYTE){
    2830:	f4 01       	movw	r30, r8
    2832:	80 81       	ld	r24, Z
    2834:	d3 01       	movw	r26, r6
    2836:	2c 91       	ld	r18, X
    2838:	b0 e1       	ldi	r27, 0x10	; 16
    283a:	8b 9f       	mul	r24, r27
    283c:	c0 01       	movw	r24, r0
    283e:	11 24       	eor	r1, r1
    2840:	82 2b       	or	r24, r18
    2842:	8a 3d       	cpi	r24, 0xDA	; 218
    2844:	91 05       	cpc	r25, r1
    2846:	09 f0       	breq	.+2      	; 0x284a <main+0x1ea>
    2848:	e1 c0       	rjmp	.+450    	; 0x2a0c <main+0x3ac>
					CRC_IN=0x07;
    284a:	87 e0       	ldi	r24, 0x07	; 7
    284c:	80 93 d4 06 	sts	0x06D4, r24	; 0x8006d4 <CRC_IN>
    2850:	81 e0       	ldi	r24, 0x01	; 1
    2852:	90 e0       	ldi	r25, 0x00	; 0
					for(uint8_t i=1;i<73;i++){
						CRC_IN^=package[i];
    2854:	fc 01       	movw	r30, r24
    2856:	ee 50       	subi	r30, 0x0E	; 14
    2858:	f9 4f       	sbci	r31, 0xF9	; 249
    285a:	30 81       	ld	r19, Z
    285c:	20 91 d4 06 	lds	r18, 0x06D4	; 0x8006d4 <CRC_IN>
    2860:	23 27       	eor	r18, r19
    2862:	20 93 d4 06 	sts	0x06D4, r18	; 0x8006d4 <CRC_IN>
    2866:	01 96       	adiw	r24, 0x01	; 1
					page=0;
					update=1;
				}
				if(((package[74]<<4)|package[75])==STOP_BYTE){
					CRC_IN=0x07;
					for(uint8_t i=1;i<73;i++){
    2868:	89 34       	cpi	r24, 0x49	; 73
    286a:	91 05       	cpc	r25, r1
    286c:	99 f7       	brne	.-26     	; 0x2854 <main+0x1f4>
						CRC_IN^=package[i];
					}
					if(CRC_IN==package[73]){
    286e:	eb e3       	ldi	r30, 0x3B	; 59
    2870:	f7 e0       	ldi	r31, 0x07	; 7
    2872:	90 81       	ld	r25, Z
    2874:	80 91 d4 06 	lds	r24, 0x06D4	; 0x8006d4 <CRC_IN>
    2878:	98 13       	cpse	r25, r24
    287a:	be c0       	rjmp	.+380    	; 0x29f8 <main+0x398>
						if(((package[1]-0x30)*10)+(package[2]-0x30)==32){
    287c:	d5 01       	movw	r26, r10
    287e:	11 96       	adiw	r26, 0x01	; 1
    2880:	8c 91       	ld	r24, X
    2882:	11 97       	sbiw	r26, 0x01	; 1
    2884:	12 96       	adiw	r26, 0x02	; 2
    2886:	4c 91       	ld	r20, X
    2888:	90 e0       	ldi	r25, 0x00	; 0
    288a:	c0 97       	sbiw	r24, 0x30	; 48
    288c:	9c 01       	movw	r18, r24
    288e:	22 0f       	add	r18, r18
    2890:	33 1f       	adc	r19, r19
    2892:	88 0f       	add	r24, r24
    2894:	99 1f       	adc	r25, r25
    2896:	88 0f       	add	r24, r24
    2898:	99 1f       	adc	r25, r25
    289a:	88 0f       	add	r24, r24
    289c:	99 1f       	adc	r25, r25
    289e:	82 0f       	add	r24, r18
    28a0:	93 1f       	adc	r25, r19
    28a2:	84 0f       	add	r24, r20
    28a4:	91 1d       	adc	r25, r1
    28a6:	80 35       	cpi	r24, 0x50	; 80
    28a8:	91 05       	cpc	r25, r1
    28aa:	09 f0       	breq	.+2      	; 0x28ae <main+0x24e>
    28ac:	61 c0       	rjmp	.+194    	; 0x2970 <main+0x310>
							if(package[67]==DISCONNECT){
    28ae:	f7 01       	movw	r30, r14
    28b0:	80 81       	ld	r24, Z
    28b2:	84 34       	cpi	r24, 0x44	; 68
    28b4:	a1 f4       	brne	.+40     	; 0x28de <main+0x27e>
								if(page!=7)update=1;
    28b6:	80 91 e9 06 	lds	r24, 0x06E9	; 0x8006e9 <page>
    28ba:	87 30       	cpi	r24, 0x07	; 7
    28bc:	11 f0       	breq	.+4      	; 0x28c2 <main+0x262>
    28be:	40 92 e8 06 	sts	0x06E8, r4	; 0x8006e8 <update>
								page=7;
    28c2:	87 e0       	ldi	r24, 0x07	; 7
    28c4:	80 93 e9 06 	sts	0x06E9, r24	; 0x8006e9 <page>
								if(sistem_mode){
    28c8:	80 91 69 02 	lds	r24, 0x0269	; 0x800269 <sistem_mode>
    28cc:	88 23       	and	r24, r24
    28ce:	21 f0       	breq	.+8      	; 0x28d8 <main+0x278>
									update=1;
    28d0:	40 92 e8 06 	sts	0x06E8, r4	; 0x8006e8 <update>
									sistem_mode=0;
    28d4:	10 92 69 02 	sts	0x0269, r1	; 0x800269 <sistem_mode>
								}
								timer_DPNK=5;
    28d8:	30 92 d6 06 	sts	0x06D6, r3	; 0x8006d6 <timer_DPNK>
    28dc:	8d c0       	rjmp	.+282    	; 0x29f8 <main+0x398>
							}
							else{
								if(!sistem_mode)sistem_mode=1;
    28de:	80 91 69 02 	lds	r24, 0x0269	; 0x800269 <sistem_mode>
    28e2:	81 11       	cpse	r24, r1
    28e4:	0c 94 86 22 	jmp	0x450c	; 0x450c <main+0x1eac>
    28e8:	40 92 69 02 	sts	0x0269, r4	; 0x800269 <sistem_mode>
    28ec:	0c 94 86 22 	jmp	0x450c	; 0x450c <main+0x1eac>
								for(uint8_t i=0;i<32;i++){
									EMZ.status[i]=package[i*2+3];
    28f0:	fc 01       	movw	r30, r24
    28f2:	ee 50       	subi	r30, 0x0E	; 14
    28f4:	f9 4f       	sbci	r31, 0xF9	; 249
    28f6:	40 81       	ld	r20, Z
    28f8:	4d 93       	st	X+, r20
									EMZ.cap[i]=package[i*2+4];
    28fa:	fc 01       	movw	r30, r24
    28fc:	ed 50       	subi	r30, 0x0D	; 13
    28fe:	f9 4f       	sbci	r31, 0xF9	; 249
    2900:	40 81       	ld	r20, Z
    2902:	f9 01       	movw	r30, r18
    2904:	41 93       	st	Z+, r20
    2906:	9f 01       	movw	r18, r30
    2908:	02 96       	adiw	r24, 0x02	; 2
								}
								timer_DPNK=5;
							}
							else{
								if(!sistem_mode)sistem_mode=1;
								for(uint8_t i=0;i<32;i++){
    290a:	83 34       	cpi	r24, 0x43	; 67
    290c:	91 05       	cpc	r25, r1
    290e:	81 f7       	brne	.-32     	; 0x28f0 <main+0x290>
									EMZ.status[i]=package[i*2+3];
									EMZ.cap[i]=package[i*2+4];
								}
								DPNK_BLOCK=package[67];
    2910:	d7 01       	movw	r26, r14
    2912:	8c 91       	ld	r24, X
    2914:	80 93 65 02 	sts	0x0265, r24	; 0x800265 <DPNK_BLOCK>
								if(DPNK_BLOCK==BLOCK)open_EMZ=32;
    2918:	80 91 65 02 	lds	r24, 0x0265	; 0x800265 <DPNK_BLOCK>
    291c:	82 34       	cpi	r24, 0x42	; 66
    291e:	19 f4       	brne	.+6      	; 0x2926 <main+0x2c6>
    2920:	80 e2       	ldi	r24, 0x20	; 32
    2922:	80 93 64 02 	sts	0x0264, r24	; 0x800264 <open_EMZ>
								user_password[0]=package[69]-0x30;
    2926:	f6 01       	movw	r30, r12
    2928:	80 81       	ld	r24, Z
    292a:	80 53       	subi	r24, 0x30	; 48
    292c:	ec ed       	ldi	r30, 0xDC	; 220
    292e:	f6 e0       	ldi	r31, 0x06	; 6
    2930:	80 83       	st	Z, r24
								user_password[1]=package[70]-0x30;
    2932:	80 91 38 07 	lds	r24, 0x0738	; 0x800738 <package+0x46>
    2936:	80 53       	subi	r24, 0x30	; 48
    2938:	81 83       	std	Z+1, r24	; 0x01
								user_password[2]=package[71]-0x30;
    293a:	80 91 39 07 	lds	r24, 0x0739	; 0x800739 <package+0x47>
    293e:	80 53       	subi	r24, 0x30	; 48
    2940:	82 83       	std	Z+2, r24	; 0x02
								user_password[3]=package[72]-0x30;
    2942:	80 91 3a 07 	lds	r24, 0x073A	; 0x80073a <package+0x48>
    2946:	80 53       	subi	r24, 0x30	; 48
    2948:	83 83       	std	Z+3, r24	; 0x03
								alarm=package[68]-0x30;
    294a:	80 91 36 07 	lds	r24, 0x0736	; 0x800736 <package+0x44>
    294e:	80 53       	subi	r24, 0x30	; 48
    2950:	80 93 d1 06 	sts	0x06D1, r24	; 0x8006d1 <alarm>
								if(alarm){
    2954:	80 91 d1 06 	lds	r24, 0x06D1	; 0x8006d1 <alarm>
    2958:	88 23       	and	r24, r24
    295a:	11 f0       	breq	.+4      	; 0x2960 <main+0x300>
									PORTD|=(1<<PORTD4);
    295c:	5c 9a       	sbi	0x0b, 4	; 11
    295e:	01 c0       	rjmp	.+2      	; 0x2962 <main+0x302>
								}
								else{
									PORTD&=~(1<<PORTD4);
    2960:	5c 98       	cbi	0x0b, 4	; 11
								}
								timer_DPNK=5;
    2962:	30 92 d6 06 	sts	0x06D6, r3	; 0x8006d6 <timer_DPNK>
								transmit=1;
    2966:	40 92 e6 06 	sts	0x06E6, r4	; 0x8006e6 <transmit>
								UART_byte=0;
    296a:	10 92 e5 06 	sts	0x06E5, r1	; 0x8006e5 <UART_byte>
    296e:	44 c0       	rjmp	.+136    	; 0x29f8 <main+0x398>
							}
						}
						else if(((package[1]-0x30)*10)+(package[2]-0x30)==64){
    2970:	d5 01       	movw	r26, r10
    2972:	11 96       	adiw	r26, 0x01	; 1
    2974:	8c 91       	ld	r24, X
    2976:	11 97       	sbiw	r26, 0x01	; 1
    2978:	12 96       	adiw	r26, 0x02	; 2
    297a:	4c 91       	ld	r20, X
    297c:	90 e0       	ldi	r25, 0x00	; 0
    297e:	c0 97       	sbiw	r24, 0x30	; 48
    2980:	9c 01       	movw	r18, r24
    2982:	22 0f       	add	r18, r18
    2984:	33 1f       	adc	r19, r19
    2986:	88 0f       	add	r24, r24
    2988:	99 1f       	adc	r25, r25
    298a:	88 0f       	add	r24, r24
    298c:	99 1f       	adc	r25, r25
    298e:	88 0f       	add	r24, r24
    2990:	99 1f       	adc	r25, r25
    2992:	82 0f       	add	r24, r18
    2994:	93 1f       	adc	r25, r19
    2996:	84 0f       	add	r24, r20
    2998:	91 1d       	adc	r25, r1
    299a:	80 37       	cpi	r24, 0x70	; 112
    299c:	91 05       	cpc	r25, r1
    299e:	61 f5       	brne	.+88     	; 0x29f8 <main+0x398>
							if(sistem_mode){
    29a0:	80 91 69 02 	lds	r24, 0x0269	; 0x800269 <sistem_mode>
    29a4:	88 23       	and	r24, r24
    29a6:	41 f1       	breq	.+80     	; 0x29f8 <main+0x398>
								if(open_EMZ<32){
    29a8:	80 91 64 02 	lds	r24, 0x0264	; 0x800264 <open_EMZ>
    29ac:	80 32       	cpi	r24, 0x20	; 32
    29ae:	10 f0       	brcs	.+4      	; 0x29b4 <main+0x354>
    29b0:	0c 94 8e 22 	jmp	0x451c	; 0x451c <main+0x1ebc>
									if(package[67]==open_EMZ)open_EMZ=32;
    29b4:	f7 01       	movw	r30, r14
    29b6:	90 81       	ld	r25, Z
    29b8:	80 91 64 02 	lds	r24, 0x0264	; 0x800264 <open_EMZ>
    29bc:	98 13       	cpse	r25, r24
    29be:	0c 94 8e 22 	jmp	0x451c	; 0x451c <main+0x1ebc>
    29c2:	80 e2       	ldi	r24, 0x20	; 32
    29c4:	80 93 64 02 	sts	0x0264, r24	; 0x800264 <open_EMZ>
    29c8:	0c 94 8e 22 	jmp	0x451c	; 0x451c <main+0x1ebc>
								}
								for(uint8_t i=0;i<32;i++){
									EMZ.status[i+32]=package[i*2+3];
    29cc:	fc 01       	movw	r30, r24
    29ce:	ee 50       	subi	r30, 0x0E	; 14
    29d0:	f9 4f       	sbci	r31, 0xF9	; 249
    29d2:	40 81       	ld	r20, Z
    29d4:	4d 93       	st	X+, r20
									EMZ.cap[i+32]=package[i*2+4];
    29d6:	fc 01       	movw	r30, r24
    29d8:	ed 50       	subi	r30, 0x0D	; 13
    29da:	f9 4f       	sbci	r31, 0xF9	; 249
    29dc:	40 81       	ld	r20, Z
    29de:	f9 01       	movw	r30, r18
    29e0:	41 93       	st	Z+, r20
    29e2:	9f 01       	movw	r18, r30
									transmit=1;
    29e4:	40 92 e6 06 	sts	0x06E6, r4	; 0x8006e6 <transmit>
									UART_byte=0;
    29e8:	10 92 e5 06 	sts	0x06E5, r1	; 0x8006e5 <UART_byte>
									timer_DPNK=5;
    29ec:	30 92 d6 06 	sts	0x06D6, r3	; 0x8006d6 <timer_DPNK>
    29f0:	02 96       	adiw	r24, 0x02	; 2
						else if(((package[1]-0x30)*10)+(package[2]-0x30)==64){
							if(sistem_mode){
								if(open_EMZ<32){
									if(package[67]==open_EMZ)open_EMZ=32;
								}
								for(uint8_t i=0;i<32;i++){
    29f2:	83 34       	cpi	r24, 0x43	; 67
    29f4:	91 05       	cpc	r25, r1
    29f6:	51 f7       	brne	.-44     	; 0x29cc <main+0x36c>
									timer_DPNK=5;
								}
							}
						}
					}
					package[1]=0;
    29f8:	d5 01       	movw	r26, r10
    29fa:	11 96       	adiw	r26, 0x01	; 1
    29fc:	1c 92       	st	X, r1
    29fe:	11 97       	sbiw	r26, 0x01	; 1
					package[2]=0;
    2a00:	12 96       	adiw	r26, 0x02	; 2
    2a02:	1c 92       	st	X, r1
					package[74]=0;
    2a04:	f4 01       	movw	r30, r8
    2a06:	10 82       	st	Z, r1
					package[75]=0;
    2a08:	d3 01       	movw	r26, r6
    2a0a:	1c 92       	st	X, r1
				}	
			}
			if(transmit){
    2a0c:	80 91 e6 06 	lds	r24, 0x06E6	; 0x8006e6 <transmit>
    2a10:	88 23       	and	r24, r24
    2a12:	11 f4       	brne	.+4      	; 0x2a18 <main+0x3b8>
    2a14:	0c 94 f0 21 	jmp	0x43e0	; 0x43e0 <main+0x1d80>
				switch (UART_byte){
    2a18:	e0 91 e5 06 	lds	r30, 0x06E5	; 0x8006e5 <UART_byte>
    2a1c:	8e 2f       	mov	r24, r30
    2a1e:	90 e0       	ldi	r25, 0x00	; 0
    2a20:	8f 30       	cpi	r24, 0x0F	; 15
    2a22:	91 05       	cpc	r25, r1
    2a24:	08 f0       	brcs	.+2      	; 0x2a28 <main+0x3c8>
    2a26:	36 c1       	rjmp	.+620    	; 0x2c94 <main+0x634>
    2a28:	fc 01       	movw	r30, r24
    2a2a:	ee 5a       	subi	r30, 0xAE	; 174
    2a2c:	ff 4f       	sbci	r31, 0xFF	; 255
    2a2e:	0c 94 aa 22 	jmp	0x4554	; 0x4554 <__tablejump2__>
					case 0:								//переключение в состояние передачи сигнала
						UCSR0B&=~(1<<RXCIE0);
    2a32:	e1 ec       	ldi	r30, 0xC1	; 193
    2a34:	f0 e0       	ldi	r31, 0x00	; 0
    2a36:	80 81       	ld	r24, Z
    2a38:	8f 77       	andi	r24, 0x7F	; 127
    2a3a:	80 83       	st	Z, r24
						CRC=7;
    2a3c:	87 e0       	ldi	r24, 0x07	; 7
    2a3e:	80 93 e1 06 	sts	0x06E1, r24	; 0x8006e1 <CRC>
						UART_byte++;
    2a42:	80 91 e5 06 	lds	r24, 0x06E5	; 0x8006e5 <UART_byte>
    2a46:	8f 5f       	subi	r24, 0xFF	; 255
    2a48:	80 93 e5 06 	sts	0x06E5, r24	; 0x8006e5 <UART_byte>
						break;
    2a4c:	0c 94 f0 21 	jmp	0x43e0	; 0x43e0 <main+0x1d80>
					case 1:								// продувка линии
						if(UCSR0A & (1<<UDRE0)){		
    2a50:	d8 01       	movw	r26, r16
    2a52:	8c 91       	ld	r24, X
    2a54:	85 fd       	sbrc	r24, 5
    2a56:	02 c0       	rjmp	.+4      	; 0x2a5c <main+0x3fc>
    2a58:	0c 94 f0 21 	jmp	0x43e0	; 0x43e0 <main+0x1d80>
							UDR0=0;						
    2a5c:	18 82       	st	Y, r1
							UART_byte++;				
    2a5e:	80 91 e5 06 	lds	r24, 0x06E5	; 0x8006e5 <UART_byte>
    2a62:	8f 5f       	subi	r24, 0xFF	; 255
    2a64:	80 93 e5 06 	sts	0x06E5, r24	; 0x8006e5 <UART_byte>
    2a68:	0c 94 f0 21 	jmp	0x43e0	; 0x43e0 <main+0x1d80>
						}
						break;
					case 2:								// продувка линии
						if(UCSR0A & (1<<UDRE0)){		
    2a6c:	f8 01       	movw	r30, r16
    2a6e:	80 81       	ld	r24, Z
    2a70:	85 fd       	sbrc	r24, 5
    2a72:	02 c0       	rjmp	.+4      	; 0x2a78 <main+0x418>
    2a74:	0c 94 f0 21 	jmp	0x43e0	; 0x43e0 <main+0x1d80>
							UDR0=0;						
    2a78:	18 82       	st	Y, r1
							UART_byte++;				
    2a7a:	80 91 e5 06 	lds	r24, 0x06E5	; 0x8006e5 <UART_byte>
    2a7e:	8f 5f       	subi	r24, 0xFF	; 255
    2a80:	80 93 e5 06 	sts	0x06E5, r24	; 0x8006e5 <UART_byte>
    2a84:	0c 94 f0 21 	jmp	0x43e0	; 0x43e0 <main+0x1d80>
						}
						break;
					case 3:								// продувка линии
						if(UCSR0A & (1<<UDRE0)){		
    2a88:	d8 01       	movw	r26, r16
    2a8a:	8c 91       	ld	r24, X
    2a8c:	85 fd       	sbrc	r24, 5
    2a8e:	02 c0       	rjmp	.+4      	; 0x2a94 <main+0x434>
    2a90:	0c 94 f0 21 	jmp	0x43e0	; 0x43e0 <main+0x1d80>
							UDR0=0;						
    2a94:	18 82       	st	Y, r1
							RS485_ON;
    2a96:	5a 9a       	sbi	0x0b, 2	; 11
							UART_byte++;				
    2a98:	80 91 e5 06 	lds	r24, 0x06E5	; 0x8006e5 <UART_byte>
    2a9c:	8f 5f       	subi	r24, 0xFF	; 255
    2a9e:	80 93 e5 06 	sts	0x06E5, r24	; 0x8006e5 <UART_byte>
    2aa2:	0c 94 f0 21 	jmp	0x43e0	; 0x43e0 <main+0x1d80>
						}
						break;
					case 4:								// отправка СТАРТ-БАЙТА
						if(UCSR0A & (1<<UDRE0)){		
    2aa6:	f8 01       	movw	r30, r16
    2aa8:	80 81       	ld	r24, Z
    2aaa:	85 fd       	sbrc	r24, 5
    2aac:	02 c0       	rjmp	.+4      	; 0x2ab2 <main+0x452>
    2aae:	0c 94 f0 21 	jmp	0x43e0	; 0x43e0 <main+0x1d80>
							UDR0=START_BYTE;			
    2ab2:	8a e3       	ldi	r24, 0x3A	; 58
    2ab4:	88 83       	st	Y, r24
							UART_byte++;				
    2ab6:	80 91 e5 06 	lds	r24, 0x06E5	; 0x8006e5 <UART_byte>
    2aba:	8f 5f       	subi	r24, 0xFF	; 255
    2abc:	80 93 e5 06 	sts	0x06E5, r24	; 0x8006e5 <UART_byte>
    2ac0:	0c 94 f0 21 	jmp	0x43e0	; 0x43e0 <main+0x1d80>
						}
						break;
					case 5:								//отправка старшего разряда адреса
						if(UCSR0A & (1<<UDRE0)){
    2ac4:	d8 01       	movw	r26, r16
    2ac6:	8c 91       	ld	r24, X
    2ac8:	85 fd       	sbrc	r24, 5
    2aca:	02 c0       	rjmp	.+4      	; 0x2ad0 <main+0x470>
    2acc:	0c 94 f0 21 	jmp	0x43e0	; 0x43e0 <main+0x1d80>
							CRC^=(0x33);
    2ad0:	80 91 e1 06 	lds	r24, 0x06E1	; 0x8006e1 <CRC>
    2ad4:	93 e3       	ldi	r25, 0x33	; 51
    2ad6:	89 27       	eor	r24, r25
    2ad8:	80 93 e1 06 	sts	0x06E1, r24	; 0x8006e1 <CRC>
							UDR0=(0x33);
    2adc:	98 83       	st	Y, r25
							UART_byte++;
    2ade:	80 91 e5 06 	lds	r24, 0x06E5	; 0x8006e5 <UART_byte>
    2ae2:	8f 5f       	subi	r24, 0xFF	; 255
    2ae4:	80 93 e5 06 	sts	0x06E5, r24	; 0x8006e5 <UART_byte>
    2ae8:	0c 94 f0 21 	jmp	0x43e0	; 0x43e0 <main+0x1d80>
						}
						break;
					case 6:								//отправка младшего разряда адреса
						if(UCSR0A & (1<<UDRE0)){
    2aec:	f8 01       	movw	r30, r16
    2aee:	80 81       	ld	r24, Z
    2af0:	85 fd       	sbrc	r24, 5
    2af2:	02 c0       	rjmp	.+4      	; 0x2af8 <main+0x498>
    2af4:	0c 94 f0 21 	jmp	0x43e0	; 0x43e0 <main+0x1d80>
							CRC^=(0x32);
    2af8:	80 91 e1 06 	lds	r24, 0x06E1	; 0x8006e1 <CRC>
    2afc:	92 e3       	ldi	r25, 0x32	; 50
    2afe:	89 27       	eor	r24, r25
    2b00:	80 93 e1 06 	sts	0x06E1, r24	; 0x8006e1 <CRC>
							UDR0=(0x32);
    2b04:	98 83       	st	Y, r25
							UART_byte++;
    2b06:	80 91 e5 06 	lds	r24, 0x06E5	; 0x8006e5 <UART_byte>
    2b0a:	8f 5f       	subi	r24, 0xFF	; 255
    2b0c:	80 93 e5 06 	sts	0x06E5, r24	; 0x8006e5 <UART_byte>
    2b10:	0c 94 f0 21 	jmp	0x43e0	; 0x43e0 <main+0x1d80>
						}
						break;
					case 7:								//отправка режима работы
						if(UCSR0A & (1<<UDRE0)){
    2b14:	d8 01       	movw	r26, r16
    2b16:	8c 91       	ld	r24, X
    2b18:	85 fd       	sbrc	r24, 5
    2b1a:	02 c0       	rjmp	.+4      	; 0x2b20 <main+0x4c0>
    2b1c:	0c 94 f0 21 	jmp	0x43e0	; 0x43e0 <main+0x1d80>
							CRC^=(sistem_mode+0x30);
    2b20:	90 91 69 02 	lds	r25, 0x0269	; 0x800269 <sistem_mode>
    2b24:	80 91 e1 06 	lds	r24, 0x06E1	; 0x8006e1 <CRC>
    2b28:	90 5d       	subi	r25, 0xD0	; 208
    2b2a:	89 27       	eor	r24, r25
    2b2c:	80 93 e1 06 	sts	0x06E1, r24	; 0x8006e1 <CRC>
							UDR0=(sistem_mode+0x30);
    2b30:	80 91 69 02 	lds	r24, 0x0269	; 0x800269 <sistem_mode>
    2b34:	80 5d       	subi	r24, 0xD0	; 208
    2b36:	88 83       	st	Y, r24
							UART_byte++;
    2b38:	80 91 e5 06 	lds	r24, 0x06E5	; 0x8006e5 <UART_byte>
    2b3c:	8f 5f       	subi	r24, 0xFF	; 255
    2b3e:	80 93 e5 06 	sts	0x06E5, r24	; 0x8006e5 <UART_byte>
    2b42:	0c 94 f0 21 	jmp	0x43e0	; 0x43e0 <main+0x1d80>
						}
						break;
					case 8:								//отправка старшего разряда адреса для открывания замка
						if(UCSR0A & (1<<UDRE0)){
    2b46:	f8 01       	movw	r30, r16
    2b48:	80 81       	ld	r24, Z
    2b4a:	85 fd       	sbrc	r24, 5
    2b4c:	02 c0       	rjmp	.+4      	; 0x2b52 <main+0x4f2>
    2b4e:	0c 94 f0 21 	jmp	0x43e0	; 0x43e0 <main+0x1d80>
							CRC^=(open_EMZ/10+0x30);
    2b52:	90 91 64 02 	lds	r25, 0x0264	; 0x800264 <open_EMZ>
    2b56:	20 91 e1 06 	lds	r18, 0x06E1	; 0x8006e1 <CRC>
    2b5a:	3d ec       	ldi	r19, 0xCD	; 205
    2b5c:	93 9f       	mul	r25, r19
    2b5e:	91 2d       	mov	r25, r1
    2b60:	11 24       	eor	r1, r1
    2b62:	96 95       	lsr	r25
    2b64:	96 95       	lsr	r25
    2b66:	96 95       	lsr	r25
    2b68:	90 5d       	subi	r25, 0xD0	; 208
    2b6a:	92 27       	eor	r25, r18
    2b6c:	90 93 e1 06 	sts	0x06E1, r25	; 0x8006e1 <CRC>
							UDR0=(open_EMZ/10+0x30);
    2b70:	80 91 64 02 	lds	r24, 0x0264	; 0x800264 <open_EMZ>
    2b74:	83 9f       	mul	r24, r19
    2b76:	81 2d       	mov	r24, r1
    2b78:	11 24       	eor	r1, r1
    2b7a:	86 95       	lsr	r24
    2b7c:	86 95       	lsr	r24
    2b7e:	86 95       	lsr	r24
    2b80:	80 5d       	subi	r24, 0xD0	; 208
    2b82:	88 83       	st	Y, r24
							UART_byte++;
    2b84:	80 91 e5 06 	lds	r24, 0x06E5	; 0x8006e5 <UART_byte>
    2b88:	8f 5f       	subi	r24, 0xFF	; 255
    2b8a:	80 93 e5 06 	sts	0x06E5, r24	; 0x8006e5 <UART_byte>
    2b8e:	0c 94 f0 21 	jmp	0x43e0	; 0x43e0 <main+0x1d80>
						}
						break;
					case 9:								//отправка младшего разряда адреса для открывания замка
						if(UCSR0A & (1<<UDRE0)){
    2b92:	d8 01       	movw	r26, r16
    2b94:	8c 91       	ld	r24, X
    2b96:	85 fd       	sbrc	r24, 5
    2b98:	02 c0       	rjmp	.+4      	; 0x2b9e <main+0x53e>
    2b9a:	0c 94 f0 21 	jmp	0x43e0	; 0x43e0 <main+0x1d80>
							CRC^=(open_EMZ%10+0x30);
    2b9e:	90 91 64 02 	lds	r25, 0x0264	; 0x800264 <open_EMZ>
    2ba2:	30 91 e1 06 	lds	r19, 0x06E1	; 0x8006e1 <CRC>
    2ba6:	8d ec       	ldi	r24, 0xCD	; 205
    2ba8:	98 9f       	mul	r25, r24
    2baa:	21 2d       	mov	r18, r1
    2bac:	11 24       	eor	r1, r1
    2bae:	26 95       	lsr	r18
    2bb0:	26 95       	lsr	r18
    2bb2:	26 95       	lsr	r18
    2bb4:	22 0f       	add	r18, r18
    2bb6:	42 2f       	mov	r20, r18
    2bb8:	44 0f       	add	r20, r20
    2bba:	44 0f       	add	r20, r20
    2bbc:	24 0f       	add	r18, r20
    2bbe:	92 1b       	sub	r25, r18
    2bc0:	90 5d       	subi	r25, 0xD0	; 208
    2bc2:	93 27       	eor	r25, r19
    2bc4:	90 93 e1 06 	sts	0x06E1, r25	; 0x8006e1 <CRC>
							UDR0=(open_EMZ%10+0x30);
    2bc8:	90 91 64 02 	lds	r25, 0x0264	; 0x800264 <open_EMZ>
    2bcc:	98 9f       	mul	r25, r24
    2bce:	81 2d       	mov	r24, r1
    2bd0:	11 24       	eor	r1, r1
    2bd2:	86 95       	lsr	r24
    2bd4:	86 95       	lsr	r24
    2bd6:	86 95       	lsr	r24
    2bd8:	88 0f       	add	r24, r24
    2bda:	28 2f       	mov	r18, r24
    2bdc:	22 0f       	add	r18, r18
    2bde:	22 0f       	add	r18, r18
    2be0:	82 0f       	add	r24, r18
    2be2:	98 1b       	sub	r25, r24
    2be4:	89 2f       	mov	r24, r25
    2be6:	80 5d       	subi	r24, 0xD0	; 208
    2be8:	88 83       	st	Y, r24
							UART_byte++;
    2bea:	80 91 e5 06 	lds	r24, 0x06E5	; 0x8006e5 <UART_byte>
    2bee:	8f 5f       	subi	r24, 0xFF	; 255
    2bf0:	80 93 e5 06 	sts	0x06E5, r24	; 0x8006e5 <UART_byte>
    2bf4:	0c 94 f0 21 	jmp	0x43e0	; 0x43e0 <main+0x1d80>
						}
						break;
					case 10:							//отправка CRC
						if(UCSR0A & (1<<UDRE0)){
    2bf8:	f8 01       	movw	r30, r16
    2bfa:	80 81       	ld	r24, Z
    2bfc:	85 fd       	sbrc	r24, 5
    2bfe:	02 c0       	rjmp	.+4      	; 0x2c04 <main+0x5a4>
    2c00:	0c 94 f0 21 	jmp	0x43e0	; 0x43e0 <main+0x1d80>
							UDR0=CRC;
    2c04:	80 91 e1 06 	lds	r24, 0x06E1	; 0x8006e1 <CRC>
    2c08:	88 83       	st	Y, r24
							UART_byte++;
    2c0a:	80 91 e5 06 	lds	r24, 0x06E5	; 0x8006e5 <UART_byte>
    2c0e:	8f 5f       	subi	r24, 0xFF	; 255
    2c10:	80 93 e5 06 	sts	0x06E5, r24	; 0x8006e5 <UART_byte>
    2c14:	0c 94 f0 21 	jmp	0x43e0	; 0x43e0 <main+0x1d80>
						}
						break;
					case 11:						//посылка СТОП-БАЙТА 0x0D
						if(UCSR0A & (1<<UDRE0)){
    2c18:	d8 01       	movw	r26, r16
    2c1a:	8c 91       	ld	r24, X
    2c1c:	85 fd       	sbrc	r24, 5
    2c1e:	02 c0       	rjmp	.+4      	; 0x2c24 <main+0x5c4>
    2c20:	0c 94 f0 21 	jmp	0x43e0	; 0x43e0 <main+0x1d80>
							UDR0=0x0D;
    2c24:	8d e0       	ldi	r24, 0x0D	; 13
    2c26:	88 83       	st	Y, r24
							UART_byte++;
    2c28:	80 91 e5 06 	lds	r24, 0x06E5	; 0x8006e5 <UART_byte>
    2c2c:	8f 5f       	subi	r24, 0xFF	; 255
    2c2e:	80 93 e5 06 	sts	0x06E5, r24	; 0x8006e5 <UART_byte>
    2c32:	0c 94 f0 21 	jmp	0x43e0	; 0x43e0 <main+0x1d80>
						}
						break;
					case 12:						//посылка СТОП-БАЙТА 0x0A
						if(UCSR0A & (1<<UDRE0)){
    2c36:	f8 01       	movw	r30, r16
    2c38:	80 81       	ld	r24, Z
    2c3a:	85 fd       	sbrc	r24, 5
    2c3c:	02 c0       	rjmp	.+4      	; 0x2c42 <main+0x5e2>
    2c3e:	0c 94 f0 21 	jmp	0x43e0	; 0x43e0 <main+0x1d80>
							UDR0=0x0A;
    2c42:	8a e0       	ldi	r24, 0x0A	; 10
    2c44:	88 83       	st	Y, r24
							UART_byte++;
    2c46:	80 91 e5 06 	lds	r24, 0x06E5	; 0x8006e5 <UART_byte>
    2c4a:	8f 5f       	subi	r24, 0xFF	; 255
    2c4c:	80 93 e5 06 	sts	0x06E5, r24	; 0x8006e5 <UART_byte>
    2c50:	0c 94 f0 21 	jmp	0x43e0	; 0x43e0 <main+0x1d80>
						}
						break;
					case 13:						// продувка линии
						if(UCSR0A & (1<<UDRE0)){
    2c54:	d8 01       	movw	r26, r16
    2c56:	8c 91       	ld	r24, X
    2c58:	85 fd       	sbrc	r24, 5
    2c5a:	02 c0       	rjmp	.+4      	; 0x2c60 <main+0x600>
    2c5c:	0c 94 f0 21 	jmp	0x43e0	; 0x43e0 <main+0x1d80>
							UDR0=0x00;
    2c60:	18 82       	st	Y, r1
							UART_byte++;
    2c62:	80 91 e5 06 	lds	r24, 0x06E5	; 0x8006e5 <UART_byte>
    2c66:	8f 5f       	subi	r24, 0xFF	; 255
    2c68:	80 93 e5 06 	sts	0x06E5, r24	; 0x8006e5 <UART_byte>
    2c6c:	0c 94 f0 21 	jmp	0x43e0	; 0x43e0 <main+0x1d80>
						}
						break;
					case 14:						// выключение передатчика
						if(UCSR0A & (1<<UDRE0)){
    2c70:	f8 01       	movw	r30, r16
    2c72:	80 81       	ld	r24, Z
    2c74:	85 fd       	sbrc	r24, 5
    2c76:	02 c0       	rjmp	.+4      	; 0x2c7c <main+0x61c>
    2c78:	0c 94 f0 21 	jmp	0x43e0	; 0x43e0 <main+0x1d80>
							RS485_OFF;
    2c7c:	5a 98       	cbi	0x0b, 2	; 11
							UCSR0B |= (1<<RXCIE0);
    2c7e:	a1 ec       	ldi	r26, 0xC1	; 193
    2c80:	b0 e0       	ldi	r27, 0x00	; 0
    2c82:	8c 91       	ld	r24, X
    2c84:	80 68       	ori	r24, 0x80	; 128
    2c86:	8c 93       	st	X, r24
							transmit=0;
    2c88:	10 92 e6 06 	sts	0x06E6, r1	; 0x8006e6 <transmit>
							UART_byte=0;
    2c8c:	10 92 e5 06 	sts	0x06E5, r1	; 0x8006e5 <UART_byte>
    2c90:	0c 94 f0 21 	jmp	0x43e0	; 0x43e0 <main+0x1d80>
						}
						break;
						default:transmit=0;
    2c94:	10 92 e6 06 	sts	0x06E6, r1	; 0x8006e6 <transmit>
    2c98:	0c 94 f0 21 	jmp	0x43e0	; 0x43e0 <main+0x1d80>
				}
			}
		}
		else{
			if(transmit){
    2c9c:	80 91 e6 06 	lds	r24, 0x06E6	; 0x8006e6 <transmit>
    2ca0:	88 23       	and	r24, r24
    2ca2:	11 f4       	brne	.+4      	; 0x2ca8 <main+0x648>
    2ca4:	0c 94 9c 21 	jmp	0x4338	; 0x4338 <main+0x1cd8>
				switch (UART_byte){
    2ca8:	e0 91 e5 06 	lds	r30, 0x06E5	; 0x8006e5 <UART_byte>
    2cac:	8e 2f       	mov	r24, r30
    2cae:	90 e0       	ldi	r25, 0x00	; 0
    2cb0:	87 36       	cpi	r24, 0x67	; 103
    2cb2:	91 05       	cpc	r25, r1
    2cb4:	10 f0       	brcs	.+4      	; 0x2cba <main+0x65a>
    2cb6:	0c 94 f0 21 	jmp	0x43e0	; 0x43e0 <main+0x1d80>
    2cba:	fc 01       	movw	r30, r24
    2cbc:	ef 59       	subi	r30, 0x9F	; 159
    2cbe:	ff 4f       	sbci	r31, 0xFF	; 255
    2cc0:	0c 94 aa 22 	jmp	0x4554	; 0x4554 <__tablejump2__>
					case 0:
						UCSR0B&=~(1<<RXCIE0);
    2cc4:	e1 ec       	ldi	r30, 0xC1	; 193
    2cc6:	f0 e0       	ldi	r31, 0x00	; 0
    2cc8:	80 81       	ld	r24, Z
    2cca:	8f 77       	andi	r24, 0x7F	; 127
    2ccc:	80 83       	st	Z, r24
						CRC=7;
    2cce:	87 e0       	ldi	r24, 0x07	; 7
    2cd0:	80 93 e1 06 	sts	0x06E1, r24	; 0x8006e1 <CRC>
						UART_byte=100;
    2cd4:	84 e6       	ldi	r24, 0x64	; 100
    2cd6:	80 93 e5 06 	sts	0x06E5, r24	; 0x8006e5 <UART_byte>
						break;
    2cda:	0c 94 f0 21 	jmp	0x43e0	; 0x43e0 <main+0x1d80>
					case 100:
						if(UCSR0A & (1<<UDRE0)){	
    2cde:	d8 01       	movw	r26, r16
    2ce0:	8c 91       	ld	r24, X
    2ce2:	85 fd       	sbrc	r24, 5
    2ce4:	02 c0       	rjmp	.+4      	; 0x2cea <main+0x68a>
    2ce6:	0c 94 f0 21 	jmp	0x43e0	; 0x43e0 <main+0x1d80>
							UDR0=0;						
    2cea:	18 82       	st	Y, r1
							UART_byte++;				
    2cec:	80 91 e5 06 	lds	r24, 0x06E5	; 0x8006e5 <UART_byte>
    2cf0:	8f 5f       	subi	r24, 0xFF	; 255
    2cf2:	80 93 e5 06 	sts	0x06E5, r24	; 0x8006e5 <UART_byte>
    2cf6:	0c 94 f0 21 	jmp	0x43e0	; 0x43e0 <main+0x1d80>
						}
						break;
					case 101:
						if(UCSR0A & (1<<UDRE0)){		
    2cfa:	f8 01       	movw	r30, r16
    2cfc:	80 81       	ld	r24, Z
    2cfe:	85 fd       	sbrc	r24, 5
    2d00:	02 c0       	rjmp	.+4      	; 0x2d06 <main+0x6a6>
    2d02:	0c 94 f0 21 	jmp	0x43e0	; 0x43e0 <main+0x1d80>
							UDR0=0;						
    2d06:	18 82       	st	Y, r1
							UART_byte++;				
    2d08:	80 91 e5 06 	lds	r24, 0x06E5	; 0x8006e5 <UART_byte>
    2d0c:	8f 5f       	subi	r24, 0xFF	; 255
    2d0e:	80 93 e5 06 	sts	0x06E5, r24	; 0x8006e5 <UART_byte>
    2d12:	0c 94 f0 21 	jmp	0x43e0	; 0x43e0 <main+0x1d80>
						}
						break;	
					case 102:
						if(UCSR0A & (1<<UDRE0)){		
    2d16:	d8 01       	movw	r26, r16
    2d18:	8c 91       	ld	r24, X
    2d1a:	85 fd       	sbrc	r24, 5
    2d1c:	02 c0       	rjmp	.+4      	; 0x2d22 <main+0x6c2>
    2d1e:	0c 94 f0 21 	jmp	0x43e0	; 0x43e0 <main+0x1d80>
							UDR0=0;						
    2d22:	18 82       	st	Y, r1
							RS485_ON;
    2d24:	5a 9a       	sbi	0x0b, 2	; 11
							UART_byte=1;				
    2d26:	40 92 e5 06 	sts	0x06E5, r4	; 0x8006e5 <UART_byte>
    2d2a:	0c 94 f0 21 	jmp	0x43e0	; 0x43e0 <main+0x1d80>
						}
						break;	
							
					case 1:
						if(UCSR0A & (1<<UDRE0)){		
    2d2e:	f8 01       	movw	r30, r16
    2d30:	80 81       	ld	r24, Z
    2d32:	85 fd       	sbrc	r24, 5
    2d34:	02 c0       	rjmp	.+4      	; 0x2d3a <main+0x6da>
    2d36:	0c 94 f0 21 	jmp	0x43e0	; 0x43e0 <main+0x1d80>
							UDR0=START_BYTE;			
    2d3a:	8a e3       	ldi	r24, 0x3A	; 58
    2d3c:	88 83       	st	Y, r24
							UART_byte++;				
    2d3e:	80 91 e5 06 	lds	r24, 0x06E5	; 0x8006e5 <UART_byte>
    2d42:	8f 5f       	subi	r24, 0xFF	; 255
    2d44:	80 93 e5 06 	sts	0x06E5, r24	; 0x8006e5 <UART_byte>
    2d48:	0c 94 f0 21 	jmp	0x43e0	; 0x43e0 <main+0x1d80>
						}
						break;
					case 2:						//посылка старшего разряда адреса
						if(UCSR0A & (1<<UDRE0)){
    2d4c:	d8 01       	movw	r26, r16
    2d4e:	8c 91       	ld	r24, X
    2d50:	85 fd       	sbrc	r24, 5
    2d52:	02 c0       	rjmp	.+4      	; 0x2d58 <main+0x6f8>
    2d54:	0c 94 f0 21 	jmp	0x43e0	; 0x43e0 <main+0x1d80>
							CRC^=(UART_adress/10+0x30);
    2d58:	90 91 e4 06 	lds	r25, 0x06E4	; 0x8006e4 <UART_adress>
    2d5c:	20 91 e1 06 	lds	r18, 0x06E1	; 0x8006e1 <CRC>
    2d60:	3d ec       	ldi	r19, 0xCD	; 205
    2d62:	93 9f       	mul	r25, r19
    2d64:	91 2d       	mov	r25, r1
    2d66:	11 24       	eor	r1, r1
    2d68:	96 95       	lsr	r25
    2d6a:	96 95       	lsr	r25
    2d6c:	96 95       	lsr	r25
    2d6e:	90 5d       	subi	r25, 0xD0	; 208
    2d70:	92 27       	eor	r25, r18
    2d72:	90 93 e1 06 	sts	0x06E1, r25	; 0x8006e1 <CRC>
							UDR0=(UART_adress/10+0x30);
    2d76:	80 91 e4 06 	lds	r24, 0x06E4	; 0x8006e4 <UART_adress>
    2d7a:	83 9f       	mul	r24, r19
    2d7c:	81 2d       	mov	r24, r1
    2d7e:	11 24       	eor	r1, r1
    2d80:	86 95       	lsr	r24
    2d82:	86 95       	lsr	r24
    2d84:	86 95       	lsr	r24
    2d86:	80 5d       	subi	r24, 0xD0	; 208
    2d88:	88 83       	st	Y, r24
							UART_byte++;
    2d8a:	80 91 e5 06 	lds	r24, 0x06E5	; 0x8006e5 <UART_byte>
    2d8e:	8f 5f       	subi	r24, 0xFF	; 255
    2d90:	80 93 e5 06 	sts	0x06E5, r24	; 0x8006e5 <UART_byte>
    2d94:	0c 94 f0 21 	jmp	0x43e0	; 0x43e0 <main+0x1d80>
						}
						break;
					case 3:						//посылка младшего разряда адреса
						if(UCSR0A & (1<<UDRE0)){
    2d98:	f8 01       	movw	r30, r16
    2d9a:	80 81       	ld	r24, Z
    2d9c:	85 fd       	sbrc	r24, 5
    2d9e:	02 c0       	rjmp	.+4      	; 0x2da4 <main+0x744>
    2da0:	0c 94 f0 21 	jmp	0x43e0	; 0x43e0 <main+0x1d80>
							CRC^=(UART_adress%10+0x30);
    2da4:	90 91 e4 06 	lds	r25, 0x06E4	; 0x8006e4 <UART_adress>
    2da8:	30 91 e1 06 	lds	r19, 0x06E1	; 0x8006e1 <CRC>
    2dac:	8d ec       	ldi	r24, 0xCD	; 205
    2dae:	98 9f       	mul	r25, r24
    2db0:	21 2d       	mov	r18, r1
    2db2:	11 24       	eor	r1, r1
    2db4:	26 95       	lsr	r18
    2db6:	26 95       	lsr	r18
    2db8:	26 95       	lsr	r18
    2dba:	22 0f       	add	r18, r18
    2dbc:	42 2f       	mov	r20, r18
    2dbe:	44 0f       	add	r20, r20
    2dc0:	44 0f       	add	r20, r20
    2dc2:	24 0f       	add	r18, r20
    2dc4:	92 1b       	sub	r25, r18
    2dc6:	90 5d       	subi	r25, 0xD0	; 208
    2dc8:	93 27       	eor	r25, r19
    2dca:	90 93 e1 06 	sts	0x06E1, r25	; 0x8006e1 <CRC>
							UDR0=(UART_adress%10+0x30);
    2dce:	90 91 e4 06 	lds	r25, 0x06E4	; 0x8006e4 <UART_adress>
    2dd2:	98 9f       	mul	r25, r24
    2dd4:	81 2d       	mov	r24, r1
    2dd6:	11 24       	eor	r1, r1
    2dd8:	86 95       	lsr	r24
    2dda:	86 95       	lsr	r24
    2ddc:	86 95       	lsr	r24
    2dde:	88 0f       	add	r24, r24
    2de0:	28 2f       	mov	r18, r24
    2de2:	22 0f       	add	r18, r18
    2de4:	22 0f       	add	r18, r18
    2de6:	82 0f       	add	r24, r18
    2de8:	98 1b       	sub	r25, r24
    2dea:	89 2f       	mov	r24, r25
    2dec:	80 5d       	subi	r24, 0xD0	; 208
    2dee:	88 83       	st	Y, r24
							if(UART_adress>31)UART_byte=6;
    2df0:	80 91 e4 06 	lds	r24, 0x06E4	; 0x8006e4 <UART_adress>
    2df4:	80 32       	cpi	r24, 0x20	; 32
    2df6:	28 f0       	brcs	.+10     	; 0x2e02 <main+0x7a2>
    2df8:	86 e0       	ldi	r24, 0x06	; 6
    2dfa:	80 93 e5 06 	sts	0x06E5, r24	; 0x8006e5 <UART_byte>
    2dfe:	0c 94 f0 21 	jmp	0x43e0	; 0x43e0 <main+0x1d80>
							//else if(UART_adress==80)UART_byte++;
							else UART_byte++;
    2e02:	80 91 e5 06 	lds	r24, 0x06E5	; 0x8006e5 <UART_byte>
    2e06:	8f 5f       	subi	r24, 0xFF	; 255
    2e08:	80 93 e5 06 	sts	0x06E5, r24	; 0x8006e5 <UART_byte>
    2e0c:	0c 94 f0 21 	jmp	0x43e0	; 0x43e0 <main+0x1d80>
						}
						break;
					case 4:						//посылка команды на замок 1
						if(UCSR0A & (1<<UDRE0)){
    2e10:	d8 01       	movw	r26, r16
    2e12:	8c 91       	ld	r24, X
    2e14:	85 fd       	sbrc	r24, 5
    2e16:	02 c0       	rjmp	.+4      	; 0x2e1c <main+0x7bc>
    2e18:	0c 94 f0 21 	jmp	0x43e0	; 0x43e0 <main+0x1d80>
							EMZ_map=EMZ.adress[UART_adress*2];
    2e1c:	e0 91 e4 06 	lds	r30, 0x06E4	; 0x8006e4 <UART_adress>
    2e20:	f0 e0       	ldi	r31, 0x00	; 0
    2e22:	ee 0f       	add	r30, r30
    2e24:	ff 1f       	adc	r31, r31
    2e26:	e0 52       	subi	r30, 0x20	; 32
    2e28:	fe 4f       	sbci	r31, 0xFE	; 254
    2e2a:	80 81       	ld	r24, Z
    2e2c:	80 93 ce 06 	sts	0x06CE, r24	; 0x8006ce <EMZ_map>
							CRC^=(EMZ.out[EMZ_map]);
    2e30:	e0 91 ce 06 	lds	r30, 0x06CE	; 0x8006ce <EMZ_map>
    2e34:	90 91 e1 06 	lds	r25, 0x06E1	; 0x8006e1 <CRC>
    2e38:	f0 e0       	ldi	r31, 0x00	; 0
    2e3a:	e0 5c       	subi	r30, 0xC0	; 192
    2e3c:	fe 4f       	sbci	r31, 0xFE	; 254
    2e3e:	80 81       	ld	r24, Z
    2e40:	89 27       	eor	r24, r25
    2e42:	80 93 e1 06 	sts	0x06E1, r24	; 0x8006e1 <CRC>
							UDR0=EMZ.out[EMZ_map];
    2e46:	e0 91 ce 06 	lds	r30, 0x06CE	; 0x8006ce <EMZ_map>
    2e4a:	f0 e0       	ldi	r31, 0x00	; 0
    2e4c:	e0 5c       	subi	r30, 0xC0	; 192
    2e4e:	fe 4f       	sbci	r31, 0xFE	; 254
    2e50:	80 81       	ld	r24, Z
    2e52:	88 83       	st	Y, r24
							UART_byte++;
    2e54:	80 91 e5 06 	lds	r24, 0x06E5	; 0x8006e5 <UART_byte>
    2e58:	8f 5f       	subi	r24, 0xFF	; 255
    2e5a:	80 93 e5 06 	sts	0x06E5, r24	; 0x8006e5 <UART_byte>
    2e5e:	0c 94 f0 21 	jmp	0x43e0	; 0x43e0 <main+0x1d80>
						}
						break;
					case 5:						//посылка команды на замок 2
						if(UCSR0A & (1<<UDRE0)){
    2e62:	f8 01       	movw	r30, r16
    2e64:	80 81       	ld	r24, Z
    2e66:	85 fd       	sbrc	r24, 5
    2e68:	02 c0       	rjmp	.+4      	; 0x2e6e <main+0x80e>
    2e6a:	0c 94 f0 21 	jmp	0x43e0	; 0x43e0 <main+0x1d80>
							EMZ_map=EMZ.adress[UART_adress*2+1];
    2e6e:	e0 91 e4 06 	lds	r30, 0x06E4	; 0x8006e4 <UART_adress>
    2e72:	f0 e0       	ldi	r31, 0x00	; 0
    2e74:	ee 0f       	add	r30, r30
    2e76:	ff 1f       	adc	r31, r31
    2e78:	ef 51       	subi	r30, 0x1F	; 31
    2e7a:	fe 4f       	sbci	r31, 0xFE	; 254
    2e7c:	80 81       	ld	r24, Z
    2e7e:	80 93 ce 06 	sts	0x06CE, r24	; 0x8006ce <EMZ_map>
							CRC^=(EMZ.out[EMZ_map]);
    2e82:	e0 91 ce 06 	lds	r30, 0x06CE	; 0x8006ce <EMZ_map>
    2e86:	90 91 e1 06 	lds	r25, 0x06E1	; 0x8006e1 <CRC>
    2e8a:	f0 e0       	ldi	r31, 0x00	; 0
    2e8c:	e0 5c       	subi	r30, 0xC0	; 192
    2e8e:	fe 4f       	sbci	r31, 0xFE	; 254
    2e90:	80 81       	ld	r24, Z
    2e92:	89 27       	eor	r24, r25
    2e94:	80 93 e1 06 	sts	0x06E1, r24	; 0x8006e1 <CRC>
							UDR0=EMZ.out[EMZ_map];
    2e98:	e0 91 ce 06 	lds	r30, 0x06CE	; 0x8006ce <EMZ_map>
    2e9c:	f0 e0       	ldi	r31, 0x00	; 0
    2e9e:	e0 5c       	subi	r30, 0xC0	; 192
    2ea0:	fe 4f       	sbci	r31, 0xFE	; 254
    2ea2:	80 81       	ld	r24, Z
    2ea4:	88 83       	st	Y, r24
							UART_byte=77;
    2ea6:	8d e4       	ldi	r24, 0x4D	; 77
    2ea8:	80 93 e5 06 	sts	0x06E5, r24	; 0x8006e5 <UART_byte>
    2eac:	0c 94 f0 21 	jmp	0x43e0	; 0x43e0 <main+0x1d80>
						}
						break;
					case 6:									//ЭМЗ-1/33
						if(UCSR0A & (1<<UDRE0)){
    2eb0:	d8 01       	movw	r26, r16
    2eb2:	8c 91       	ld	r24, X
    2eb4:	85 fd       	sbrc	r24, 5
    2eb6:	02 c0       	rjmp	.+4      	; 0x2ebc <main+0x85c>
    2eb8:	0c 94 f0 21 	jmp	0x43e0	; 0x43e0 <main+0x1d80>
							
							CRC^=EMZ.status[UART_adress-32];
    2ebc:	e0 91 e4 06 	lds	r30, 0x06E4	; 0x8006e4 <UART_adress>
    2ec0:	90 91 e1 06 	lds	r25, 0x06E1	; 0x8006e1 <CRC>
    2ec4:	f0 e0       	ldi	r31, 0x00	; 0
    2ec6:	e0 52       	subi	r30, 0x20	; 32
    2ec8:	ff 4f       	sbci	r31, 0xFF	; 255
    2eca:	80 81       	ld	r24, Z
    2ecc:	89 27       	eor	r24, r25
    2ece:	80 93 e1 06 	sts	0x06E1, r24	; 0x8006e1 <CRC>
							UDR0=EMZ.status[UART_adress-32];
    2ed2:	e0 91 e4 06 	lds	r30, 0x06E4	; 0x8006e4 <UART_adress>
    2ed6:	f0 e0       	ldi	r31, 0x00	; 0
    2ed8:	e0 52       	subi	r30, 0x20	; 32
    2eda:	ff 4f       	sbci	r31, 0xFF	; 255
    2edc:	80 81       	ld	r24, Z
    2ede:	88 83       	st	Y, r24
							UART_byte++;
    2ee0:	80 91 e5 06 	lds	r24, 0x06E5	; 0x8006e5 <UART_byte>
    2ee4:	8f 5f       	subi	r24, 0xFF	; 255
    2ee6:	80 93 e5 06 	sts	0x06E5, r24	; 0x8006e5 <UART_byte>
    2eea:	0c 94 f0 21 	jmp	0x43e0	; 0x43e0 <main+0x1d80>
						}
						break;
					case 7:
						if(UCSR0A & (1<<UDRE0)){
    2eee:	f8 01       	movw	r30, r16
    2ef0:	80 81       	ld	r24, Z
    2ef2:	85 fd       	sbrc	r24, 5
    2ef4:	02 c0       	rjmp	.+4      	; 0x2efa <main+0x89a>
    2ef6:	0c 94 f0 21 	jmp	0x43e0	; 0x43e0 <main+0x1d80>
							CRC^=EMZ.cap[UART_adress-32];
    2efa:	e0 91 e4 06 	lds	r30, 0x06E4	; 0x8006e4 <UART_adress>
    2efe:	90 91 e1 06 	lds	r25, 0x06E1	; 0x8006e1 <CRC>
    2f02:	f0 e0       	ldi	r31, 0x00	; 0
    2f04:	e0 58       	subi	r30, 0x80	; 128
    2f06:	fe 4f       	sbci	r31, 0xFE	; 254
    2f08:	80 81       	ld	r24, Z
    2f0a:	89 27       	eor	r24, r25
    2f0c:	80 93 e1 06 	sts	0x06E1, r24	; 0x8006e1 <CRC>
							UDR0=EMZ.cap[UART_adress-32];
    2f10:	e0 91 e4 06 	lds	r30, 0x06E4	; 0x8006e4 <UART_adress>
    2f14:	f0 e0       	ldi	r31, 0x00	; 0
    2f16:	e0 58       	subi	r30, 0x80	; 128
    2f18:	fe 4f       	sbci	r31, 0xFE	; 254
    2f1a:	80 81       	ld	r24, Z
    2f1c:	88 83       	st	Y, r24
							UART_byte++;
    2f1e:	80 91 e5 06 	lds	r24, 0x06E5	; 0x8006e5 <UART_byte>
    2f22:	8f 5f       	subi	r24, 0xFF	; 255
    2f24:	80 93 e5 06 	sts	0x06E5, r24	; 0x8006e5 <UART_byte>
    2f28:	0c 94 f0 21 	jmp	0x43e0	; 0x43e0 <main+0x1d80>
						}
						break;
					case 8:									//ЭМЗ-2/34
						if(UCSR0A & (1<<UDRE0)){
    2f2c:	d8 01       	movw	r26, r16
    2f2e:	8c 91       	ld	r24, X
    2f30:	85 fd       	sbrc	r24, 5
    2f32:	02 c0       	rjmp	.+4      	; 0x2f38 <main+0x8d8>
    2f34:	0c 94 f0 21 	jmp	0x43e0	; 0x43e0 <main+0x1d80>
							CRC^=EMZ.status[UART_adress-31];
    2f38:	e0 91 e4 06 	lds	r30, 0x06E4	; 0x8006e4 <UART_adress>
    2f3c:	90 91 e1 06 	lds	r25, 0x06E1	; 0x8006e1 <CRC>
    2f40:	f0 e0       	ldi	r31, 0x00	; 0
    2f42:	ef 51       	subi	r30, 0x1F	; 31
    2f44:	ff 4f       	sbci	r31, 0xFF	; 255
    2f46:	80 81       	ld	r24, Z
    2f48:	89 27       	eor	r24, r25
    2f4a:	80 93 e1 06 	sts	0x06E1, r24	; 0x8006e1 <CRC>
							UDR0=EMZ.status[UART_adress-31];
    2f4e:	e0 91 e4 06 	lds	r30, 0x06E4	; 0x8006e4 <UART_adress>
    2f52:	f0 e0       	ldi	r31, 0x00	; 0
    2f54:	ef 51       	subi	r30, 0x1F	; 31
    2f56:	ff 4f       	sbci	r31, 0xFF	; 255
    2f58:	80 81       	ld	r24, Z
    2f5a:	88 83       	st	Y, r24
							UART_byte++;
    2f5c:	80 91 e5 06 	lds	r24, 0x06E5	; 0x8006e5 <UART_byte>
    2f60:	8f 5f       	subi	r24, 0xFF	; 255
    2f62:	80 93 e5 06 	sts	0x06E5, r24	; 0x8006e5 <UART_byte>
    2f66:	0c 94 f0 21 	jmp	0x43e0	; 0x43e0 <main+0x1d80>
						}
						break;
					case 9:
						if(UCSR0A & (1<<UDRE0)){
    2f6a:	f8 01       	movw	r30, r16
    2f6c:	80 81       	ld	r24, Z
    2f6e:	85 fd       	sbrc	r24, 5
    2f70:	02 c0       	rjmp	.+4      	; 0x2f76 <main+0x916>
    2f72:	0c 94 f0 21 	jmp	0x43e0	; 0x43e0 <main+0x1d80>
							CRC^=EMZ.cap[UART_adress-31];
    2f76:	e0 91 e4 06 	lds	r30, 0x06E4	; 0x8006e4 <UART_adress>
    2f7a:	90 91 e1 06 	lds	r25, 0x06E1	; 0x8006e1 <CRC>
    2f7e:	f0 e0       	ldi	r31, 0x00	; 0
    2f80:	ef 57       	subi	r30, 0x7F	; 127
    2f82:	fe 4f       	sbci	r31, 0xFE	; 254
    2f84:	80 81       	ld	r24, Z
    2f86:	89 27       	eor	r24, r25
    2f88:	80 93 e1 06 	sts	0x06E1, r24	; 0x8006e1 <CRC>
							UDR0=EMZ.cap[UART_adress-31];
    2f8c:	e0 91 e4 06 	lds	r30, 0x06E4	; 0x8006e4 <UART_adress>
    2f90:	f0 e0       	ldi	r31, 0x00	; 0
    2f92:	ef 57       	subi	r30, 0x7F	; 127
    2f94:	fe 4f       	sbci	r31, 0xFE	; 254
    2f96:	80 81       	ld	r24, Z
    2f98:	88 83       	st	Y, r24
							UART_byte++;
    2f9a:	80 91 e5 06 	lds	r24, 0x06E5	; 0x8006e5 <UART_byte>
    2f9e:	8f 5f       	subi	r24, 0xFF	; 255
    2fa0:	80 93 e5 06 	sts	0x06E5, r24	; 0x8006e5 <UART_byte>
    2fa4:	0c 94 f0 21 	jmp	0x43e0	; 0x43e0 <main+0x1d80>
						}
						break;
					case 10:								//ЭМЗ-3/35
						if(UCSR0A & (1<<UDRE0)){
    2fa8:	d8 01       	movw	r26, r16
    2faa:	8c 91       	ld	r24, X
    2fac:	85 fd       	sbrc	r24, 5
    2fae:	02 c0       	rjmp	.+4      	; 0x2fb4 <main+0x954>
    2fb0:	0c 94 f0 21 	jmp	0x43e0	; 0x43e0 <main+0x1d80>
							CRC^=EMZ.status[UART_adress-30];
    2fb4:	e0 91 e4 06 	lds	r30, 0x06E4	; 0x8006e4 <UART_adress>
    2fb8:	90 91 e1 06 	lds	r25, 0x06E1	; 0x8006e1 <CRC>
    2fbc:	f0 e0       	ldi	r31, 0x00	; 0
    2fbe:	ee 51       	subi	r30, 0x1E	; 30
    2fc0:	ff 4f       	sbci	r31, 0xFF	; 255
    2fc2:	80 81       	ld	r24, Z
    2fc4:	89 27       	eor	r24, r25
    2fc6:	80 93 e1 06 	sts	0x06E1, r24	; 0x8006e1 <CRC>
							UDR0=EMZ.status[UART_adress-30];
    2fca:	e0 91 e4 06 	lds	r30, 0x06E4	; 0x8006e4 <UART_adress>
    2fce:	f0 e0       	ldi	r31, 0x00	; 0
    2fd0:	ee 51       	subi	r30, 0x1E	; 30
    2fd2:	ff 4f       	sbci	r31, 0xFF	; 255
    2fd4:	80 81       	ld	r24, Z
    2fd6:	88 83       	st	Y, r24
							UART_byte++;
    2fd8:	80 91 e5 06 	lds	r24, 0x06E5	; 0x8006e5 <UART_byte>
    2fdc:	8f 5f       	subi	r24, 0xFF	; 255
    2fde:	80 93 e5 06 	sts	0x06E5, r24	; 0x8006e5 <UART_byte>
    2fe2:	0c 94 f0 21 	jmp	0x43e0	; 0x43e0 <main+0x1d80>
						}
						break;
					case 11:
						if(UCSR0A & (1<<UDRE0)){
    2fe6:	f8 01       	movw	r30, r16
    2fe8:	80 81       	ld	r24, Z
    2fea:	85 fd       	sbrc	r24, 5
    2fec:	02 c0       	rjmp	.+4      	; 0x2ff2 <main+0x992>
    2fee:	0c 94 f0 21 	jmp	0x43e0	; 0x43e0 <main+0x1d80>
							CRC^=EMZ.cap[UART_adress-30];
    2ff2:	e0 91 e4 06 	lds	r30, 0x06E4	; 0x8006e4 <UART_adress>
    2ff6:	90 91 e1 06 	lds	r25, 0x06E1	; 0x8006e1 <CRC>
    2ffa:	f0 e0       	ldi	r31, 0x00	; 0
    2ffc:	ee 57       	subi	r30, 0x7E	; 126
    2ffe:	fe 4f       	sbci	r31, 0xFE	; 254
    3000:	80 81       	ld	r24, Z
    3002:	89 27       	eor	r24, r25
    3004:	80 93 e1 06 	sts	0x06E1, r24	; 0x8006e1 <CRC>
							UDR0=EMZ.cap[UART_adress-30];
    3008:	e0 91 e4 06 	lds	r30, 0x06E4	; 0x8006e4 <UART_adress>
    300c:	f0 e0       	ldi	r31, 0x00	; 0
    300e:	ee 57       	subi	r30, 0x7E	; 126
    3010:	fe 4f       	sbci	r31, 0xFE	; 254
    3012:	80 81       	ld	r24, Z
    3014:	88 83       	st	Y, r24
							UART_byte++;
    3016:	80 91 e5 06 	lds	r24, 0x06E5	; 0x8006e5 <UART_byte>
    301a:	8f 5f       	subi	r24, 0xFF	; 255
    301c:	80 93 e5 06 	sts	0x06E5, r24	; 0x8006e5 <UART_byte>
    3020:	0c 94 f0 21 	jmp	0x43e0	; 0x43e0 <main+0x1d80>
						}
						break;
					case 12:							//ЭМЗ-4/36
						if(UCSR0A & (1<<UDRE0)){
    3024:	d8 01       	movw	r26, r16
    3026:	8c 91       	ld	r24, X
    3028:	85 fd       	sbrc	r24, 5
    302a:	02 c0       	rjmp	.+4      	; 0x3030 <main+0x9d0>
    302c:	0c 94 f0 21 	jmp	0x43e0	; 0x43e0 <main+0x1d80>
							CRC^=EMZ.status[UART_adress-29];
    3030:	e0 91 e4 06 	lds	r30, 0x06E4	; 0x8006e4 <UART_adress>
    3034:	90 91 e1 06 	lds	r25, 0x06E1	; 0x8006e1 <CRC>
    3038:	f0 e0       	ldi	r31, 0x00	; 0
    303a:	ed 51       	subi	r30, 0x1D	; 29
    303c:	ff 4f       	sbci	r31, 0xFF	; 255
    303e:	80 81       	ld	r24, Z
    3040:	89 27       	eor	r24, r25
    3042:	80 93 e1 06 	sts	0x06E1, r24	; 0x8006e1 <CRC>
							UDR0=EMZ.status[UART_adress-29];
    3046:	e0 91 e4 06 	lds	r30, 0x06E4	; 0x8006e4 <UART_adress>
    304a:	f0 e0       	ldi	r31, 0x00	; 0
    304c:	ed 51       	subi	r30, 0x1D	; 29
    304e:	ff 4f       	sbci	r31, 0xFF	; 255
    3050:	80 81       	ld	r24, Z
    3052:	88 83       	st	Y, r24
							UART_byte++;
    3054:	80 91 e5 06 	lds	r24, 0x06E5	; 0x8006e5 <UART_byte>
    3058:	8f 5f       	subi	r24, 0xFF	; 255
    305a:	80 93 e5 06 	sts	0x06E5, r24	; 0x8006e5 <UART_byte>
    305e:	0c 94 f0 21 	jmp	0x43e0	; 0x43e0 <main+0x1d80>
						}
						break;
					case 13:
						if(UCSR0A & (1<<UDRE0)){
    3062:	f8 01       	movw	r30, r16
    3064:	80 81       	ld	r24, Z
    3066:	85 fd       	sbrc	r24, 5
    3068:	02 c0       	rjmp	.+4      	; 0x306e <main+0xa0e>
    306a:	0c 94 f0 21 	jmp	0x43e0	; 0x43e0 <main+0x1d80>
							CRC^=EMZ.cap[UART_adress-29];
    306e:	e0 91 e4 06 	lds	r30, 0x06E4	; 0x8006e4 <UART_adress>
    3072:	90 91 e1 06 	lds	r25, 0x06E1	; 0x8006e1 <CRC>
    3076:	f0 e0       	ldi	r31, 0x00	; 0
    3078:	ed 57       	subi	r30, 0x7D	; 125
    307a:	fe 4f       	sbci	r31, 0xFE	; 254
    307c:	80 81       	ld	r24, Z
    307e:	89 27       	eor	r24, r25
    3080:	80 93 e1 06 	sts	0x06E1, r24	; 0x8006e1 <CRC>
							UDR0=EMZ.cap[UART_adress-29];
    3084:	e0 91 e4 06 	lds	r30, 0x06E4	; 0x8006e4 <UART_adress>
    3088:	f0 e0       	ldi	r31, 0x00	; 0
    308a:	ed 57       	subi	r30, 0x7D	; 125
    308c:	fe 4f       	sbci	r31, 0xFE	; 254
    308e:	80 81       	ld	r24, Z
    3090:	88 83       	st	Y, r24
							UART_byte++;
    3092:	80 91 e5 06 	lds	r24, 0x06E5	; 0x8006e5 <UART_byte>
    3096:	8f 5f       	subi	r24, 0xFF	; 255
    3098:	80 93 e5 06 	sts	0x06E5, r24	; 0x8006e5 <UART_byte>
    309c:	0c 94 f0 21 	jmp	0x43e0	; 0x43e0 <main+0x1d80>
						}
						break;
					case 14:							//ЭМЗ-5/37
						if(UCSR0A & (1<<UDRE0)){
    30a0:	d8 01       	movw	r26, r16
    30a2:	8c 91       	ld	r24, X
    30a4:	85 fd       	sbrc	r24, 5
    30a6:	02 c0       	rjmp	.+4      	; 0x30ac <main+0xa4c>
    30a8:	0c 94 f0 21 	jmp	0x43e0	; 0x43e0 <main+0x1d80>
							CRC^=EMZ.status[UART_adress-28];
    30ac:	e0 91 e4 06 	lds	r30, 0x06E4	; 0x8006e4 <UART_adress>
    30b0:	90 91 e1 06 	lds	r25, 0x06E1	; 0x8006e1 <CRC>
    30b4:	f0 e0       	ldi	r31, 0x00	; 0
    30b6:	ec 51       	subi	r30, 0x1C	; 28
    30b8:	ff 4f       	sbci	r31, 0xFF	; 255
    30ba:	80 81       	ld	r24, Z
    30bc:	89 27       	eor	r24, r25
    30be:	80 93 e1 06 	sts	0x06E1, r24	; 0x8006e1 <CRC>
							UDR0=EMZ.status[UART_adress-28];
    30c2:	e0 91 e4 06 	lds	r30, 0x06E4	; 0x8006e4 <UART_adress>
    30c6:	f0 e0       	ldi	r31, 0x00	; 0
    30c8:	ec 51       	subi	r30, 0x1C	; 28
    30ca:	ff 4f       	sbci	r31, 0xFF	; 255
    30cc:	80 81       	ld	r24, Z
    30ce:	88 83       	st	Y, r24
							UART_byte++;
    30d0:	80 91 e5 06 	lds	r24, 0x06E5	; 0x8006e5 <UART_byte>
    30d4:	8f 5f       	subi	r24, 0xFF	; 255
    30d6:	80 93 e5 06 	sts	0x06E5, r24	; 0x8006e5 <UART_byte>
    30da:	0c 94 f0 21 	jmp	0x43e0	; 0x43e0 <main+0x1d80>
						}
						break;
					case 15:
						if(UCSR0A & (1<<UDRE0)){
    30de:	f8 01       	movw	r30, r16
    30e0:	80 81       	ld	r24, Z
    30e2:	85 fd       	sbrc	r24, 5
    30e4:	02 c0       	rjmp	.+4      	; 0x30ea <main+0xa8a>
    30e6:	0c 94 f0 21 	jmp	0x43e0	; 0x43e0 <main+0x1d80>
							CRC^=EMZ.cap[UART_adress-28];
    30ea:	e0 91 e4 06 	lds	r30, 0x06E4	; 0x8006e4 <UART_adress>
    30ee:	90 91 e1 06 	lds	r25, 0x06E1	; 0x8006e1 <CRC>
    30f2:	f0 e0       	ldi	r31, 0x00	; 0
    30f4:	ec 57       	subi	r30, 0x7C	; 124
    30f6:	fe 4f       	sbci	r31, 0xFE	; 254
    30f8:	80 81       	ld	r24, Z
    30fa:	89 27       	eor	r24, r25
    30fc:	80 93 e1 06 	sts	0x06E1, r24	; 0x8006e1 <CRC>
							UDR0=EMZ.cap[UART_adress-28];
    3100:	e0 91 e4 06 	lds	r30, 0x06E4	; 0x8006e4 <UART_adress>
    3104:	f0 e0       	ldi	r31, 0x00	; 0
    3106:	ec 57       	subi	r30, 0x7C	; 124
    3108:	fe 4f       	sbci	r31, 0xFE	; 254
    310a:	80 81       	ld	r24, Z
    310c:	88 83       	st	Y, r24
							UART_byte++;
    310e:	80 91 e5 06 	lds	r24, 0x06E5	; 0x8006e5 <UART_byte>
    3112:	8f 5f       	subi	r24, 0xFF	; 255
    3114:	80 93 e5 06 	sts	0x06E5, r24	; 0x8006e5 <UART_byte>
    3118:	0c 94 f0 21 	jmp	0x43e0	; 0x43e0 <main+0x1d80>
						}
						break;
					case 16:							//ЭМЗ-6/38
						if(UCSR0A & (1<<UDRE0)){
    311c:	d8 01       	movw	r26, r16
    311e:	8c 91       	ld	r24, X
    3120:	85 fd       	sbrc	r24, 5
    3122:	02 c0       	rjmp	.+4      	; 0x3128 <main+0xac8>
    3124:	0c 94 f0 21 	jmp	0x43e0	; 0x43e0 <main+0x1d80>
							CRC^=EMZ.status[UART_adress-27];
    3128:	e0 91 e4 06 	lds	r30, 0x06E4	; 0x8006e4 <UART_adress>
    312c:	90 91 e1 06 	lds	r25, 0x06E1	; 0x8006e1 <CRC>
    3130:	f0 e0       	ldi	r31, 0x00	; 0
    3132:	eb 51       	subi	r30, 0x1B	; 27
    3134:	ff 4f       	sbci	r31, 0xFF	; 255
    3136:	80 81       	ld	r24, Z
    3138:	89 27       	eor	r24, r25
    313a:	80 93 e1 06 	sts	0x06E1, r24	; 0x8006e1 <CRC>
							UDR0=EMZ.status[UART_adress-27];
    313e:	e0 91 e4 06 	lds	r30, 0x06E4	; 0x8006e4 <UART_adress>
    3142:	f0 e0       	ldi	r31, 0x00	; 0
    3144:	eb 51       	subi	r30, 0x1B	; 27
    3146:	ff 4f       	sbci	r31, 0xFF	; 255
    3148:	80 81       	ld	r24, Z
    314a:	88 83       	st	Y, r24
							UART_byte++;
    314c:	80 91 e5 06 	lds	r24, 0x06E5	; 0x8006e5 <UART_byte>
    3150:	8f 5f       	subi	r24, 0xFF	; 255
    3152:	80 93 e5 06 	sts	0x06E5, r24	; 0x8006e5 <UART_byte>
    3156:	0c 94 f0 21 	jmp	0x43e0	; 0x43e0 <main+0x1d80>
						}
						break;
					case 17:
						if(UCSR0A & (1<<UDRE0)){
    315a:	f8 01       	movw	r30, r16
    315c:	80 81       	ld	r24, Z
    315e:	85 fd       	sbrc	r24, 5
    3160:	02 c0       	rjmp	.+4      	; 0x3166 <main+0xb06>
    3162:	0c 94 f0 21 	jmp	0x43e0	; 0x43e0 <main+0x1d80>
							CRC^=EMZ.cap[UART_adress-27];
    3166:	e0 91 e4 06 	lds	r30, 0x06E4	; 0x8006e4 <UART_adress>
    316a:	90 91 e1 06 	lds	r25, 0x06E1	; 0x8006e1 <CRC>
    316e:	f0 e0       	ldi	r31, 0x00	; 0
    3170:	eb 57       	subi	r30, 0x7B	; 123
    3172:	fe 4f       	sbci	r31, 0xFE	; 254
    3174:	80 81       	ld	r24, Z
    3176:	89 27       	eor	r24, r25
    3178:	80 93 e1 06 	sts	0x06E1, r24	; 0x8006e1 <CRC>
							UDR0=EMZ.cap[UART_adress-27];
    317c:	e0 91 e4 06 	lds	r30, 0x06E4	; 0x8006e4 <UART_adress>
    3180:	f0 e0       	ldi	r31, 0x00	; 0
    3182:	eb 57       	subi	r30, 0x7B	; 123
    3184:	fe 4f       	sbci	r31, 0xFE	; 254
    3186:	80 81       	ld	r24, Z
    3188:	88 83       	st	Y, r24
							UART_byte++;
    318a:	80 91 e5 06 	lds	r24, 0x06E5	; 0x8006e5 <UART_byte>
    318e:	8f 5f       	subi	r24, 0xFF	; 255
    3190:	80 93 e5 06 	sts	0x06E5, r24	; 0x8006e5 <UART_byte>
    3194:	0c 94 f0 21 	jmp	0x43e0	; 0x43e0 <main+0x1d80>
						}
						break;
					case 18:							//ЭМЗ-7/39
						if(UCSR0A & (1<<UDRE0)){
    3198:	d8 01       	movw	r26, r16
    319a:	8c 91       	ld	r24, X
    319c:	85 fd       	sbrc	r24, 5
    319e:	02 c0       	rjmp	.+4      	; 0x31a4 <main+0xb44>
    31a0:	0c 94 f0 21 	jmp	0x43e0	; 0x43e0 <main+0x1d80>
							CRC^=EMZ.status[UART_adress-26];
    31a4:	e0 91 e4 06 	lds	r30, 0x06E4	; 0x8006e4 <UART_adress>
    31a8:	90 91 e1 06 	lds	r25, 0x06E1	; 0x8006e1 <CRC>
    31ac:	f0 e0       	ldi	r31, 0x00	; 0
    31ae:	ea 51       	subi	r30, 0x1A	; 26
    31b0:	ff 4f       	sbci	r31, 0xFF	; 255
    31b2:	80 81       	ld	r24, Z
    31b4:	89 27       	eor	r24, r25
    31b6:	80 93 e1 06 	sts	0x06E1, r24	; 0x8006e1 <CRC>
							UDR0=EMZ.status[UART_adress-26];
    31ba:	e0 91 e4 06 	lds	r30, 0x06E4	; 0x8006e4 <UART_adress>
    31be:	f0 e0       	ldi	r31, 0x00	; 0
    31c0:	ea 51       	subi	r30, 0x1A	; 26
    31c2:	ff 4f       	sbci	r31, 0xFF	; 255
    31c4:	80 81       	ld	r24, Z
    31c6:	88 83       	st	Y, r24
							UART_byte++;
    31c8:	80 91 e5 06 	lds	r24, 0x06E5	; 0x8006e5 <UART_byte>
    31cc:	8f 5f       	subi	r24, 0xFF	; 255
    31ce:	80 93 e5 06 	sts	0x06E5, r24	; 0x8006e5 <UART_byte>
    31d2:	0c 94 f0 21 	jmp	0x43e0	; 0x43e0 <main+0x1d80>
						}
						break;
					case 19:
						if(UCSR0A & (1<<UDRE0)){
    31d6:	f8 01       	movw	r30, r16
    31d8:	80 81       	ld	r24, Z
    31da:	85 fd       	sbrc	r24, 5
    31dc:	02 c0       	rjmp	.+4      	; 0x31e2 <main+0xb82>
    31de:	0c 94 f0 21 	jmp	0x43e0	; 0x43e0 <main+0x1d80>
							CRC^=EMZ.cap[UART_adress-26];
    31e2:	e0 91 e4 06 	lds	r30, 0x06E4	; 0x8006e4 <UART_adress>
    31e6:	90 91 e1 06 	lds	r25, 0x06E1	; 0x8006e1 <CRC>
    31ea:	f0 e0       	ldi	r31, 0x00	; 0
    31ec:	ea 57       	subi	r30, 0x7A	; 122
    31ee:	fe 4f       	sbci	r31, 0xFE	; 254
    31f0:	80 81       	ld	r24, Z
    31f2:	89 27       	eor	r24, r25
    31f4:	80 93 e1 06 	sts	0x06E1, r24	; 0x8006e1 <CRC>
							UDR0=EMZ.cap[UART_adress-26];
    31f8:	e0 91 e4 06 	lds	r30, 0x06E4	; 0x8006e4 <UART_adress>
    31fc:	f0 e0       	ldi	r31, 0x00	; 0
    31fe:	ea 57       	subi	r30, 0x7A	; 122
    3200:	fe 4f       	sbci	r31, 0xFE	; 254
    3202:	80 81       	ld	r24, Z
    3204:	88 83       	st	Y, r24
							UART_byte++;
    3206:	80 91 e5 06 	lds	r24, 0x06E5	; 0x8006e5 <UART_byte>
    320a:	8f 5f       	subi	r24, 0xFF	; 255
    320c:	80 93 e5 06 	sts	0x06E5, r24	; 0x8006e5 <UART_byte>
    3210:	0c 94 f0 21 	jmp	0x43e0	; 0x43e0 <main+0x1d80>
						}
						break;
					case 20:							//ЭМЗ-8/40
						if(UCSR0A & (1<<UDRE0)){
    3214:	d8 01       	movw	r26, r16
    3216:	8c 91       	ld	r24, X
    3218:	85 fd       	sbrc	r24, 5
    321a:	02 c0       	rjmp	.+4      	; 0x3220 <main+0xbc0>
    321c:	0c 94 f0 21 	jmp	0x43e0	; 0x43e0 <main+0x1d80>
							CRC^=EMZ.status[UART_adress-25];
    3220:	e0 91 e4 06 	lds	r30, 0x06E4	; 0x8006e4 <UART_adress>
    3224:	90 91 e1 06 	lds	r25, 0x06E1	; 0x8006e1 <CRC>
    3228:	f0 e0       	ldi	r31, 0x00	; 0
    322a:	e9 51       	subi	r30, 0x19	; 25
    322c:	ff 4f       	sbci	r31, 0xFF	; 255
    322e:	80 81       	ld	r24, Z
    3230:	89 27       	eor	r24, r25
    3232:	80 93 e1 06 	sts	0x06E1, r24	; 0x8006e1 <CRC>
							UDR0=EMZ.status[UART_adress-25];
    3236:	e0 91 e4 06 	lds	r30, 0x06E4	; 0x8006e4 <UART_adress>
    323a:	f0 e0       	ldi	r31, 0x00	; 0
    323c:	e9 51       	subi	r30, 0x19	; 25
    323e:	ff 4f       	sbci	r31, 0xFF	; 255
    3240:	80 81       	ld	r24, Z
    3242:	88 83       	st	Y, r24
							UART_byte++;
    3244:	80 91 e5 06 	lds	r24, 0x06E5	; 0x8006e5 <UART_byte>
    3248:	8f 5f       	subi	r24, 0xFF	; 255
    324a:	80 93 e5 06 	sts	0x06E5, r24	; 0x8006e5 <UART_byte>
    324e:	0c 94 f0 21 	jmp	0x43e0	; 0x43e0 <main+0x1d80>
						}
						break;
					case 21:
						if(UCSR0A & (1<<UDRE0)){
    3252:	f8 01       	movw	r30, r16
    3254:	80 81       	ld	r24, Z
    3256:	85 fd       	sbrc	r24, 5
    3258:	02 c0       	rjmp	.+4      	; 0x325e <main+0xbfe>
    325a:	0c 94 f0 21 	jmp	0x43e0	; 0x43e0 <main+0x1d80>
							CRC^=EMZ.cap[UART_adress-25];
    325e:	e0 91 e4 06 	lds	r30, 0x06E4	; 0x8006e4 <UART_adress>
    3262:	90 91 e1 06 	lds	r25, 0x06E1	; 0x8006e1 <CRC>
    3266:	f0 e0       	ldi	r31, 0x00	; 0
    3268:	e9 57       	subi	r30, 0x79	; 121
    326a:	fe 4f       	sbci	r31, 0xFE	; 254
    326c:	80 81       	ld	r24, Z
    326e:	89 27       	eor	r24, r25
    3270:	80 93 e1 06 	sts	0x06E1, r24	; 0x8006e1 <CRC>
							UDR0=EMZ.cap[UART_adress-25];
    3274:	e0 91 e4 06 	lds	r30, 0x06E4	; 0x8006e4 <UART_adress>
    3278:	f0 e0       	ldi	r31, 0x00	; 0
    327a:	e9 57       	subi	r30, 0x79	; 121
    327c:	fe 4f       	sbci	r31, 0xFE	; 254
    327e:	80 81       	ld	r24, Z
    3280:	88 83       	st	Y, r24
							UART_byte++;
    3282:	80 91 e5 06 	lds	r24, 0x06E5	; 0x8006e5 <UART_byte>
    3286:	8f 5f       	subi	r24, 0xFF	; 255
    3288:	80 93 e5 06 	sts	0x06E5, r24	; 0x8006e5 <UART_byte>
    328c:	0c 94 f0 21 	jmp	0x43e0	; 0x43e0 <main+0x1d80>
						}
						break;
					case 22:							//ЭМЗ-9/41
						if(UCSR0A & (1<<UDRE0)){
    3290:	d8 01       	movw	r26, r16
    3292:	8c 91       	ld	r24, X
    3294:	85 fd       	sbrc	r24, 5
    3296:	02 c0       	rjmp	.+4      	; 0x329c <main+0xc3c>
    3298:	0c 94 f0 21 	jmp	0x43e0	; 0x43e0 <main+0x1d80>
							CRC^=EMZ.status[UART_adress-24];
    329c:	e0 91 e4 06 	lds	r30, 0x06E4	; 0x8006e4 <UART_adress>
    32a0:	90 91 e1 06 	lds	r25, 0x06E1	; 0x8006e1 <CRC>
    32a4:	f0 e0       	ldi	r31, 0x00	; 0
    32a6:	e8 51       	subi	r30, 0x18	; 24
    32a8:	ff 4f       	sbci	r31, 0xFF	; 255
    32aa:	80 81       	ld	r24, Z
    32ac:	89 27       	eor	r24, r25
    32ae:	80 93 e1 06 	sts	0x06E1, r24	; 0x8006e1 <CRC>
							UDR0=EMZ.status[UART_adress-24];
    32b2:	e0 91 e4 06 	lds	r30, 0x06E4	; 0x8006e4 <UART_adress>
    32b6:	f0 e0       	ldi	r31, 0x00	; 0
    32b8:	e8 51       	subi	r30, 0x18	; 24
    32ba:	ff 4f       	sbci	r31, 0xFF	; 255
    32bc:	80 81       	ld	r24, Z
    32be:	88 83       	st	Y, r24
							UART_byte++;
    32c0:	80 91 e5 06 	lds	r24, 0x06E5	; 0x8006e5 <UART_byte>
    32c4:	8f 5f       	subi	r24, 0xFF	; 255
    32c6:	80 93 e5 06 	sts	0x06E5, r24	; 0x8006e5 <UART_byte>
    32ca:	0c 94 f0 21 	jmp	0x43e0	; 0x43e0 <main+0x1d80>
						}
						break;
					case 23:	
						if(UCSR0A & (1<<UDRE0)){
    32ce:	f8 01       	movw	r30, r16
    32d0:	80 81       	ld	r24, Z
    32d2:	85 fd       	sbrc	r24, 5
    32d4:	02 c0       	rjmp	.+4      	; 0x32da <main+0xc7a>
    32d6:	0c 94 f0 21 	jmp	0x43e0	; 0x43e0 <main+0x1d80>
							CRC^=EMZ.cap[UART_adress-24];
    32da:	e0 91 e4 06 	lds	r30, 0x06E4	; 0x8006e4 <UART_adress>
    32de:	90 91 e1 06 	lds	r25, 0x06E1	; 0x8006e1 <CRC>
    32e2:	f0 e0       	ldi	r31, 0x00	; 0
    32e4:	e8 57       	subi	r30, 0x78	; 120
    32e6:	fe 4f       	sbci	r31, 0xFE	; 254
    32e8:	80 81       	ld	r24, Z
    32ea:	89 27       	eor	r24, r25
    32ec:	80 93 e1 06 	sts	0x06E1, r24	; 0x8006e1 <CRC>
							UDR0=EMZ.cap[UART_adress-24];
    32f0:	e0 91 e4 06 	lds	r30, 0x06E4	; 0x8006e4 <UART_adress>
    32f4:	f0 e0       	ldi	r31, 0x00	; 0
    32f6:	e8 57       	subi	r30, 0x78	; 120
    32f8:	fe 4f       	sbci	r31, 0xFE	; 254
    32fa:	80 81       	ld	r24, Z
    32fc:	88 83       	st	Y, r24
							UART_byte++;
    32fe:	80 91 e5 06 	lds	r24, 0x06E5	; 0x8006e5 <UART_byte>
    3302:	8f 5f       	subi	r24, 0xFF	; 255
    3304:	80 93 e5 06 	sts	0x06E5, r24	; 0x8006e5 <UART_byte>
    3308:	0c 94 f0 21 	jmp	0x43e0	; 0x43e0 <main+0x1d80>
						}
						break;
					case 24:							//ЭМЗ-10/42
						if(UCSR0A & (1<<UDRE0)){
    330c:	d8 01       	movw	r26, r16
    330e:	8c 91       	ld	r24, X
    3310:	85 fd       	sbrc	r24, 5
    3312:	02 c0       	rjmp	.+4      	; 0x3318 <main+0xcb8>
    3314:	0c 94 f0 21 	jmp	0x43e0	; 0x43e0 <main+0x1d80>
							CRC^=EMZ.status[UART_adress-23];
    3318:	e0 91 e4 06 	lds	r30, 0x06E4	; 0x8006e4 <UART_adress>
    331c:	90 91 e1 06 	lds	r25, 0x06E1	; 0x8006e1 <CRC>
    3320:	f0 e0       	ldi	r31, 0x00	; 0
    3322:	e7 51       	subi	r30, 0x17	; 23
    3324:	ff 4f       	sbci	r31, 0xFF	; 255
    3326:	80 81       	ld	r24, Z
    3328:	89 27       	eor	r24, r25
    332a:	80 93 e1 06 	sts	0x06E1, r24	; 0x8006e1 <CRC>
							UDR0=EMZ.status[UART_adress-23];
    332e:	e0 91 e4 06 	lds	r30, 0x06E4	; 0x8006e4 <UART_adress>
    3332:	f0 e0       	ldi	r31, 0x00	; 0
    3334:	e7 51       	subi	r30, 0x17	; 23
    3336:	ff 4f       	sbci	r31, 0xFF	; 255
    3338:	80 81       	ld	r24, Z
    333a:	88 83       	st	Y, r24
							UART_byte++;
    333c:	80 91 e5 06 	lds	r24, 0x06E5	; 0x8006e5 <UART_byte>
    3340:	8f 5f       	subi	r24, 0xFF	; 255
    3342:	80 93 e5 06 	sts	0x06E5, r24	; 0x8006e5 <UART_byte>
    3346:	0c 94 f0 21 	jmp	0x43e0	; 0x43e0 <main+0x1d80>
						}
						break;
					case 25:
						if(UCSR0A & (1<<UDRE0)){
    334a:	f8 01       	movw	r30, r16
    334c:	80 81       	ld	r24, Z
    334e:	85 fd       	sbrc	r24, 5
    3350:	02 c0       	rjmp	.+4      	; 0x3356 <main+0xcf6>
    3352:	0c 94 f0 21 	jmp	0x43e0	; 0x43e0 <main+0x1d80>
							CRC^=EMZ.cap[UART_adress-23];
    3356:	e0 91 e4 06 	lds	r30, 0x06E4	; 0x8006e4 <UART_adress>
    335a:	90 91 e1 06 	lds	r25, 0x06E1	; 0x8006e1 <CRC>
    335e:	f0 e0       	ldi	r31, 0x00	; 0
    3360:	e7 57       	subi	r30, 0x77	; 119
    3362:	fe 4f       	sbci	r31, 0xFE	; 254
    3364:	80 81       	ld	r24, Z
    3366:	89 27       	eor	r24, r25
    3368:	80 93 e1 06 	sts	0x06E1, r24	; 0x8006e1 <CRC>
							UDR0=EMZ.cap[UART_adress-23];
    336c:	e0 91 e4 06 	lds	r30, 0x06E4	; 0x8006e4 <UART_adress>
    3370:	f0 e0       	ldi	r31, 0x00	; 0
    3372:	e7 57       	subi	r30, 0x77	; 119
    3374:	fe 4f       	sbci	r31, 0xFE	; 254
    3376:	80 81       	ld	r24, Z
    3378:	88 83       	st	Y, r24
							UART_byte++;
    337a:	80 91 e5 06 	lds	r24, 0x06E5	; 0x8006e5 <UART_byte>
    337e:	8f 5f       	subi	r24, 0xFF	; 255
    3380:	80 93 e5 06 	sts	0x06E5, r24	; 0x8006e5 <UART_byte>
    3384:	0c 94 f0 21 	jmp	0x43e0	; 0x43e0 <main+0x1d80>
						}
						break;
					case 26:							//ЭМЗ-11/43
						if(UCSR0A & (1<<UDRE0)){
    3388:	d8 01       	movw	r26, r16
    338a:	8c 91       	ld	r24, X
    338c:	85 fd       	sbrc	r24, 5
    338e:	02 c0       	rjmp	.+4      	; 0x3394 <main+0xd34>
    3390:	0c 94 f0 21 	jmp	0x43e0	; 0x43e0 <main+0x1d80>
							CRC^=EMZ.status[UART_adress-22];
    3394:	e0 91 e4 06 	lds	r30, 0x06E4	; 0x8006e4 <UART_adress>
    3398:	90 91 e1 06 	lds	r25, 0x06E1	; 0x8006e1 <CRC>
    339c:	f0 e0       	ldi	r31, 0x00	; 0
    339e:	e6 51       	subi	r30, 0x16	; 22
    33a0:	ff 4f       	sbci	r31, 0xFF	; 255
    33a2:	80 81       	ld	r24, Z
    33a4:	89 27       	eor	r24, r25
    33a6:	80 93 e1 06 	sts	0x06E1, r24	; 0x8006e1 <CRC>
							UDR0=EMZ.status[UART_adress-22];
    33aa:	e0 91 e4 06 	lds	r30, 0x06E4	; 0x8006e4 <UART_adress>
    33ae:	f0 e0       	ldi	r31, 0x00	; 0
    33b0:	e6 51       	subi	r30, 0x16	; 22
    33b2:	ff 4f       	sbci	r31, 0xFF	; 255
    33b4:	80 81       	ld	r24, Z
    33b6:	88 83       	st	Y, r24
							UART_byte++;
    33b8:	80 91 e5 06 	lds	r24, 0x06E5	; 0x8006e5 <UART_byte>
    33bc:	8f 5f       	subi	r24, 0xFF	; 255
    33be:	80 93 e5 06 	sts	0x06E5, r24	; 0x8006e5 <UART_byte>
    33c2:	0c 94 f0 21 	jmp	0x43e0	; 0x43e0 <main+0x1d80>
						}
						break;
					case 27:
						if(UCSR0A & (1<<UDRE0)){
    33c6:	f8 01       	movw	r30, r16
    33c8:	80 81       	ld	r24, Z
    33ca:	85 fd       	sbrc	r24, 5
    33cc:	02 c0       	rjmp	.+4      	; 0x33d2 <main+0xd72>
    33ce:	0c 94 f0 21 	jmp	0x43e0	; 0x43e0 <main+0x1d80>
							CRC^=EMZ.cap[UART_adress-22];
    33d2:	e0 91 e4 06 	lds	r30, 0x06E4	; 0x8006e4 <UART_adress>
    33d6:	90 91 e1 06 	lds	r25, 0x06E1	; 0x8006e1 <CRC>
    33da:	f0 e0       	ldi	r31, 0x00	; 0
    33dc:	e6 57       	subi	r30, 0x76	; 118
    33de:	fe 4f       	sbci	r31, 0xFE	; 254
    33e0:	80 81       	ld	r24, Z
    33e2:	89 27       	eor	r24, r25
    33e4:	80 93 e1 06 	sts	0x06E1, r24	; 0x8006e1 <CRC>
							UDR0=EMZ.cap[UART_adress-22];
    33e8:	e0 91 e4 06 	lds	r30, 0x06E4	; 0x8006e4 <UART_adress>
    33ec:	f0 e0       	ldi	r31, 0x00	; 0
    33ee:	e6 57       	subi	r30, 0x76	; 118
    33f0:	fe 4f       	sbci	r31, 0xFE	; 254
    33f2:	80 81       	ld	r24, Z
    33f4:	88 83       	st	Y, r24
							UART_byte++;
    33f6:	80 91 e5 06 	lds	r24, 0x06E5	; 0x8006e5 <UART_byte>
    33fa:	8f 5f       	subi	r24, 0xFF	; 255
    33fc:	80 93 e5 06 	sts	0x06E5, r24	; 0x8006e5 <UART_byte>
    3400:	ef c7       	rjmp	.+4062   	; 0x43e0 <main+0x1d80>
						}
						break;
					case 28:							//ЭМЗ-12/44
						if(UCSR0A & (1<<UDRE0)){
    3402:	d8 01       	movw	r26, r16
    3404:	8c 91       	ld	r24, X
    3406:	85 ff       	sbrs	r24, 5
    3408:	eb c7       	rjmp	.+4054   	; 0x43e0 <main+0x1d80>
							CRC^=EMZ.status[UART_adress-21];
    340a:	e0 91 e4 06 	lds	r30, 0x06E4	; 0x8006e4 <UART_adress>
    340e:	90 91 e1 06 	lds	r25, 0x06E1	; 0x8006e1 <CRC>
    3412:	f0 e0       	ldi	r31, 0x00	; 0
    3414:	e5 51       	subi	r30, 0x15	; 21
    3416:	ff 4f       	sbci	r31, 0xFF	; 255
    3418:	80 81       	ld	r24, Z
    341a:	89 27       	eor	r24, r25
    341c:	80 93 e1 06 	sts	0x06E1, r24	; 0x8006e1 <CRC>
							UDR0=EMZ.status[UART_adress-21];
    3420:	e0 91 e4 06 	lds	r30, 0x06E4	; 0x8006e4 <UART_adress>
    3424:	f0 e0       	ldi	r31, 0x00	; 0
    3426:	e5 51       	subi	r30, 0x15	; 21
    3428:	ff 4f       	sbci	r31, 0xFF	; 255
    342a:	80 81       	ld	r24, Z
    342c:	88 83       	st	Y, r24
							UART_byte++;
    342e:	80 91 e5 06 	lds	r24, 0x06E5	; 0x8006e5 <UART_byte>
    3432:	8f 5f       	subi	r24, 0xFF	; 255
    3434:	80 93 e5 06 	sts	0x06E5, r24	; 0x8006e5 <UART_byte>
    3438:	d3 c7       	rjmp	.+4006   	; 0x43e0 <main+0x1d80>
						}
						break;
					case 29:
						if(UCSR0A & (1<<UDRE0)){
    343a:	f8 01       	movw	r30, r16
    343c:	80 81       	ld	r24, Z
    343e:	85 ff       	sbrs	r24, 5
    3440:	cf c7       	rjmp	.+3998   	; 0x43e0 <main+0x1d80>
							CRC^=EMZ.cap[UART_adress-21];
    3442:	e0 91 e4 06 	lds	r30, 0x06E4	; 0x8006e4 <UART_adress>
    3446:	90 91 e1 06 	lds	r25, 0x06E1	; 0x8006e1 <CRC>
    344a:	f0 e0       	ldi	r31, 0x00	; 0
    344c:	e5 57       	subi	r30, 0x75	; 117
    344e:	fe 4f       	sbci	r31, 0xFE	; 254
    3450:	80 81       	ld	r24, Z
    3452:	89 27       	eor	r24, r25
    3454:	80 93 e1 06 	sts	0x06E1, r24	; 0x8006e1 <CRC>
							UDR0=EMZ.cap[UART_adress-21];
    3458:	e0 91 e4 06 	lds	r30, 0x06E4	; 0x8006e4 <UART_adress>
    345c:	f0 e0       	ldi	r31, 0x00	; 0
    345e:	e5 57       	subi	r30, 0x75	; 117
    3460:	fe 4f       	sbci	r31, 0xFE	; 254
    3462:	80 81       	ld	r24, Z
    3464:	88 83       	st	Y, r24
							UART_byte++;
    3466:	80 91 e5 06 	lds	r24, 0x06E5	; 0x8006e5 <UART_byte>
    346a:	8f 5f       	subi	r24, 0xFF	; 255
    346c:	80 93 e5 06 	sts	0x06E5, r24	; 0x8006e5 <UART_byte>
    3470:	b7 c7       	rjmp	.+3950   	; 0x43e0 <main+0x1d80>
						}
						break;
					case 30:							//ЭМЗ-13/45
						if(UCSR0A & (1<<UDRE0)){
    3472:	d8 01       	movw	r26, r16
    3474:	8c 91       	ld	r24, X
    3476:	85 ff       	sbrs	r24, 5
    3478:	b3 c7       	rjmp	.+3942   	; 0x43e0 <main+0x1d80>
							CRC^=EMZ.status[UART_adress-20];
    347a:	e0 91 e4 06 	lds	r30, 0x06E4	; 0x8006e4 <UART_adress>
    347e:	90 91 e1 06 	lds	r25, 0x06E1	; 0x8006e1 <CRC>
    3482:	f0 e0       	ldi	r31, 0x00	; 0
    3484:	e4 51       	subi	r30, 0x14	; 20
    3486:	ff 4f       	sbci	r31, 0xFF	; 255
    3488:	80 81       	ld	r24, Z
    348a:	89 27       	eor	r24, r25
    348c:	80 93 e1 06 	sts	0x06E1, r24	; 0x8006e1 <CRC>
							UDR0=EMZ.status[UART_adress-20];
    3490:	e0 91 e4 06 	lds	r30, 0x06E4	; 0x8006e4 <UART_adress>
    3494:	f0 e0       	ldi	r31, 0x00	; 0
    3496:	e4 51       	subi	r30, 0x14	; 20
    3498:	ff 4f       	sbci	r31, 0xFF	; 255
    349a:	80 81       	ld	r24, Z
    349c:	88 83       	st	Y, r24
							UART_byte++;
    349e:	80 91 e5 06 	lds	r24, 0x06E5	; 0x8006e5 <UART_byte>
    34a2:	8f 5f       	subi	r24, 0xFF	; 255
    34a4:	80 93 e5 06 	sts	0x06E5, r24	; 0x8006e5 <UART_byte>
    34a8:	9b c7       	rjmp	.+3894   	; 0x43e0 <main+0x1d80>
						}
						break;
					case 31:
						if(UCSR0A & (1<<UDRE0)){
    34aa:	f8 01       	movw	r30, r16
    34ac:	80 81       	ld	r24, Z
    34ae:	85 ff       	sbrs	r24, 5
    34b0:	97 c7       	rjmp	.+3886   	; 0x43e0 <main+0x1d80>
							CRC^=EMZ.cap[UART_adress-20];
    34b2:	e0 91 e4 06 	lds	r30, 0x06E4	; 0x8006e4 <UART_adress>
    34b6:	90 91 e1 06 	lds	r25, 0x06E1	; 0x8006e1 <CRC>
    34ba:	f0 e0       	ldi	r31, 0x00	; 0
    34bc:	e4 57       	subi	r30, 0x74	; 116
    34be:	fe 4f       	sbci	r31, 0xFE	; 254
    34c0:	80 81       	ld	r24, Z
    34c2:	89 27       	eor	r24, r25
    34c4:	80 93 e1 06 	sts	0x06E1, r24	; 0x8006e1 <CRC>
							UDR0=EMZ.cap[UART_adress-20];
    34c8:	e0 91 e4 06 	lds	r30, 0x06E4	; 0x8006e4 <UART_adress>
    34cc:	f0 e0       	ldi	r31, 0x00	; 0
    34ce:	e4 57       	subi	r30, 0x74	; 116
    34d0:	fe 4f       	sbci	r31, 0xFE	; 254
    34d2:	80 81       	ld	r24, Z
    34d4:	88 83       	st	Y, r24
							UART_byte++;
    34d6:	80 91 e5 06 	lds	r24, 0x06E5	; 0x8006e5 <UART_byte>
    34da:	8f 5f       	subi	r24, 0xFF	; 255
    34dc:	80 93 e5 06 	sts	0x06E5, r24	; 0x8006e5 <UART_byte>
    34e0:	7f c7       	rjmp	.+3838   	; 0x43e0 <main+0x1d80>
						}
						break;
					case 32:							//ЭМЗ-14/46
						if(UCSR0A & (1<<UDRE0)){
    34e2:	d8 01       	movw	r26, r16
    34e4:	8c 91       	ld	r24, X
    34e6:	85 ff       	sbrs	r24, 5
    34e8:	7b c7       	rjmp	.+3830   	; 0x43e0 <main+0x1d80>
							CRC^=EMZ.status[UART_adress-19];
    34ea:	e0 91 e4 06 	lds	r30, 0x06E4	; 0x8006e4 <UART_adress>
    34ee:	90 91 e1 06 	lds	r25, 0x06E1	; 0x8006e1 <CRC>
    34f2:	f0 e0       	ldi	r31, 0x00	; 0
    34f4:	e3 51       	subi	r30, 0x13	; 19
    34f6:	ff 4f       	sbci	r31, 0xFF	; 255
    34f8:	80 81       	ld	r24, Z
    34fa:	89 27       	eor	r24, r25
    34fc:	80 93 e1 06 	sts	0x06E1, r24	; 0x8006e1 <CRC>
							UDR0=EMZ.status[UART_adress-19];
    3500:	e0 91 e4 06 	lds	r30, 0x06E4	; 0x8006e4 <UART_adress>
    3504:	f0 e0       	ldi	r31, 0x00	; 0
    3506:	e3 51       	subi	r30, 0x13	; 19
    3508:	ff 4f       	sbci	r31, 0xFF	; 255
    350a:	80 81       	ld	r24, Z
    350c:	88 83       	st	Y, r24
							UART_byte++;
    350e:	80 91 e5 06 	lds	r24, 0x06E5	; 0x8006e5 <UART_byte>
    3512:	8f 5f       	subi	r24, 0xFF	; 255
    3514:	80 93 e5 06 	sts	0x06E5, r24	; 0x8006e5 <UART_byte>
    3518:	63 c7       	rjmp	.+3782   	; 0x43e0 <main+0x1d80>
						}
						break;
					case 33:
						if(UCSR0A & (1<<UDRE0)){
    351a:	f8 01       	movw	r30, r16
    351c:	80 81       	ld	r24, Z
    351e:	85 ff       	sbrs	r24, 5
    3520:	5f c7       	rjmp	.+3774   	; 0x43e0 <main+0x1d80>
							CRC^=EMZ.cap[UART_adress-19];
    3522:	e0 91 e4 06 	lds	r30, 0x06E4	; 0x8006e4 <UART_adress>
    3526:	90 91 e1 06 	lds	r25, 0x06E1	; 0x8006e1 <CRC>
    352a:	f0 e0       	ldi	r31, 0x00	; 0
    352c:	e3 57       	subi	r30, 0x73	; 115
    352e:	fe 4f       	sbci	r31, 0xFE	; 254
    3530:	80 81       	ld	r24, Z
    3532:	89 27       	eor	r24, r25
    3534:	80 93 e1 06 	sts	0x06E1, r24	; 0x8006e1 <CRC>
							UDR0=EMZ.cap[UART_adress-19];
    3538:	e0 91 e4 06 	lds	r30, 0x06E4	; 0x8006e4 <UART_adress>
    353c:	f0 e0       	ldi	r31, 0x00	; 0
    353e:	e3 57       	subi	r30, 0x73	; 115
    3540:	fe 4f       	sbci	r31, 0xFE	; 254
    3542:	80 81       	ld	r24, Z
    3544:	88 83       	st	Y, r24
							UART_byte++;
    3546:	80 91 e5 06 	lds	r24, 0x06E5	; 0x8006e5 <UART_byte>
    354a:	8f 5f       	subi	r24, 0xFF	; 255
    354c:	80 93 e5 06 	sts	0x06E5, r24	; 0x8006e5 <UART_byte>
    3550:	47 c7       	rjmp	.+3726   	; 0x43e0 <main+0x1d80>
						}
						break;
					case 34:								//ЭМЗ-15/47
						if(UCSR0A & (1<<UDRE0)){
    3552:	d8 01       	movw	r26, r16
    3554:	8c 91       	ld	r24, X
    3556:	85 ff       	sbrs	r24, 5
    3558:	43 c7       	rjmp	.+3718   	; 0x43e0 <main+0x1d80>
							CRC^=EMZ.status[UART_adress-18];
    355a:	e0 91 e4 06 	lds	r30, 0x06E4	; 0x8006e4 <UART_adress>
    355e:	90 91 e1 06 	lds	r25, 0x06E1	; 0x8006e1 <CRC>
    3562:	f0 e0       	ldi	r31, 0x00	; 0
    3564:	e2 51       	subi	r30, 0x12	; 18
    3566:	ff 4f       	sbci	r31, 0xFF	; 255
    3568:	80 81       	ld	r24, Z
    356a:	89 27       	eor	r24, r25
    356c:	80 93 e1 06 	sts	0x06E1, r24	; 0x8006e1 <CRC>
							UDR0=EMZ.status[UART_adress-18];
    3570:	e0 91 e4 06 	lds	r30, 0x06E4	; 0x8006e4 <UART_adress>
    3574:	f0 e0       	ldi	r31, 0x00	; 0
    3576:	e2 51       	subi	r30, 0x12	; 18
    3578:	ff 4f       	sbci	r31, 0xFF	; 255
    357a:	80 81       	ld	r24, Z
    357c:	88 83       	st	Y, r24
							UART_byte++;
    357e:	80 91 e5 06 	lds	r24, 0x06E5	; 0x8006e5 <UART_byte>
    3582:	8f 5f       	subi	r24, 0xFF	; 255
    3584:	80 93 e5 06 	sts	0x06E5, r24	; 0x8006e5 <UART_byte>
    3588:	2b c7       	rjmp	.+3670   	; 0x43e0 <main+0x1d80>
						}
						break;
					case 35:
						if(UCSR0A & (1<<UDRE0)){
    358a:	f8 01       	movw	r30, r16
    358c:	80 81       	ld	r24, Z
    358e:	85 ff       	sbrs	r24, 5
    3590:	27 c7       	rjmp	.+3662   	; 0x43e0 <main+0x1d80>
							CRC^=EMZ.cap[UART_adress-18];
    3592:	e0 91 e4 06 	lds	r30, 0x06E4	; 0x8006e4 <UART_adress>
    3596:	90 91 e1 06 	lds	r25, 0x06E1	; 0x8006e1 <CRC>
    359a:	f0 e0       	ldi	r31, 0x00	; 0
    359c:	e2 57       	subi	r30, 0x72	; 114
    359e:	fe 4f       	sbci	r31, 0xFE	; 254
    35a0:	80 81       	ld	r24, Z
    35a2:	89 27       	eor	r24, r25
    35a4:	80 93 e1 06 	sts	0x06E1, r24	; 0x8006e1 <CRC>
							UDR0=EMZ.cap[UART_adress-18];
    35a8:	e0 91 e4 06 	lds	r30, 0x06E4	; 0x8006e4 <UART_adress>
    35ac:	f0 e0       	ldi	r31, 0x00	; 0
    35ae:	e2 57       	subi	r30, 0x72	; 114
    35b0:	fe 4f       	sbci	r31, 0xFE	; 254
    35b2:	80 81       	ld	r24, Z
    35b4:	88 83       	st	Y, r24
							UART_byte++;
    35b6:	80 91 e5 06 	lds	r24, 0x06E5	; 0x8006e5 <UART_byte>
    35ba:	8f 5f       	subi	r24, 0xFF	; 255
    35bc:	80 93 e5 06 	sts	0x06E5, r24	; 0x8006e5 <UART_byte>
    35c0:	0f c7       	rjmp	.+3614   	; 0x43e0 <main+0x1d80>
						}
						break;
					case 36:							//ЭМЗ-16/48
						if(UCSR0A & (1<<UDRE0)){
    35c2:	d8 01       	movw	r26, r16
    35c4:	8c 91       	ld	r24, X
    35c6:	85 ff       	sbrs	r24, 5
    35c8:	0b c7       	rjmp	.+3606   	; 0x43e0 <main+0x1d80>
							CRC^=EMZ.status[UART_adress-17];
    35ca:	e0 91 e4 06 	lds	r30, 0x06E4	; 0x8006e4 <UART_adress>
    35ce:	90 91 e1 06 	lds	r25, 0x06E1	; 0x8006e1 <CRC>
    35d2:	f0 e0       	ldi	r31, 0x00	; 0
    35d4:	e1 51       	subi	r30, 0x11	; 17
    35d6:	ff 4f       	sbci	r31, 0xFF	; 255
    35d8:	80 81       	ld	r24, Z
    35da:	89 27       	eor	r24, r25
    35dc:	80 93 e1 06 	sts	0x06E1, r24	; 0x8006e1 <CRC>
							UDR0=EMZ.status[UART_adress-17];
    35e0:	e0 91 e4 06 	lds	r30, 0x06E4	; 0x8006e4 <UART_adress>
    35e4:	f0 e0       	ldi	r31, 0x00	; 0
    35e6:	e1 51       	subi	r30, 0x11	; 17
    35e8:	ff 4f       	sbci	r31, 0xFF	; 255
    35ea:	80 81       	ld	r24, Z
    35ec:	88 83       	st	Y, r24
							UART_byte++;
    35ee:	80 91 e5 06 	lds	r24, 0x06E5	; 0x8006e5 <UART_byte>
    35f2:	8f 5f       	subi	r24, 0xFF	; 255
    35f4:	80 93 e5 06 	sts	0x06E5, r24	; 0x8006e5 <UART_byte>
    35f8:	f3 c6       	rjmp	.+3558   	; 0x43e0 <main+0x1d80>
						}
						break;
					case 37:
						if(UCSR0A & (1<<UDRE0)){
    35fa:	f8 01       	movw	r30, r16
    35fc:	80 81       	ld	r24, Z
    35fe:	85 ff       	sbrs	r24, 5
    3600:	ef c6       	rjmp	.+3550   	; 0x43e0 <main+0x1d80>
							CRC^=EMZ.cap[UART_adress-17];
    3602:	e0 91 e4 06 	lds	r30, 0x06E4	; 0x8006e4 <UART_adress>
    3606:	90 91 e1 06 	lds	r25, 0x06E1	; 0x8006e1 <CRC>
    360a:	f0 e0       	ldi	r31, 0x00	; 0
    360c:	e1 57       	subi	r30, 0x71	; 113
    360e:	fe 4f       	sbci	r31, 0xFE	; 254
    3610:	80 81       	ld	r24, Z
    3612:	89 27       	eor	r24, r25
    3614:	80 93 e1 06 	sts	0x06E1, r24	; 0x8006e1 <CRC>
							UDR0=EMZ.cap[UART_adress-17];
    3618:	e0 91 e4 06 	lds	r30, 0x06E4	; 0x8006e4 <UART_adress>
    361c:	f0 e0       	ldi	r31, 0x00	; 0
    361e:	e1 57       	subi	r30, 0x71	; 113
    3620:	fe 4f       	sbci	r31, 0xFE	; 254
    3622:	80 81       	ld	r24, Z
    3624:	88 83       	st	Y, r24
							UART_byte++;
    3626:	80 91 e5 06 	lds	r24, 0x06E5	; 0x8006e5 <UART_byte>
    362a:	8f 5f       	subi	r24, 0xFF	; 255
    362c:	80 93 e5 06 	sts	0x06E5, r24	; 0x8006e5 <UART_byte>
    3630:	d7 c6       	rjmp	.+3502   	; 0x43e0 <main+0x1d80>
						}
						break;
					case 38:						//ЭМЗ-17/49
						if(UCSR0A & (1<<UDRE0)){
    3632:	d8 01       	movw	r26, r16
    3634:	8c 91       	ld	r24, X
    3636:	85 ff       	sbrs	r24, 5
    3638:	d3 c6       	rjmp	.+3494   	; 0x43e0 <main+0x1d80>
							CRC^=EMZ.status[UART_adress-16];
    363a:	e0 91 e4 06 	lds	r30, 0x06E4	; 0x8006e4 <UART_adress>
    363e:	90 91 e1 06 	lds	r25, 0x06E1	; 0x8006e1 <CRC>
    3642:	f0 e0       	ldi	r31, 0x00	; 0
    3644:	e0 51       	subi	r30, 0x10	; 16
    3646:	ff 4f       	sbci	r31, 0xFF	; 255
    3648:	80 81       	ld	r24, Z
    364a:	89 27       	eor	r24, r25
    364c:	80 93 e1 06 	sts	0x06E1, r24	; 0x8006e1 <CRC>
							UDR0=EMZ.status[UART_adress-16];
    3650:	e0 91 e4 06 	lds	r30, 0x06E4	; 0x8006e4 <UART_adress>
    3654:	f0 e0       	ldi	r31, 0x00	; 0
    3656:	e0 51       	subi	r30, 0x10	; 16
    3658:	ff 4f       	sbci	r31, 0xFF	; 255
    365a:	80 81       	ld	r24, Z
    365c:	88 83       	st	Y, r24
							UART_byte++;
    365e:	80 91 e5 06 	lds	r24, 0x06E5	; 0x8006e5 <UART_byte>
    3662:	8f 5f       	subi	r24, 0xFF	; 255
    3664:	80 93 e5 06 	sts	0x06E5, r24	; 0x8006e5 <UART_byte>
    3668:	bb c6       	rjmp	.+3446   	; 0x43e0 <main+0x1d80>
						}
						break;
					case 39:
						if(UCSR0A & (1<<UDRE0)){
    366a:	f8 01       	movw	r30, r16
    366c:	80 81       	ld	r24, Z
    366e:	85 ff       	sbrs	r24, 5
    3670:	b7 c6       	rjmp	.+3438   	; 0x43e0 <main+0x1d80>
							CRC^=EMZ.cap[UART_adress-16];
    3672:	e0 91 e4 06 	lds	r30, 0x06E4	; 0x8006e4 <UART_adress>
    3676:	90 91 e1 06 	lds	r25, 0x06E1	; 0x8006e1 <CRC>
    367a:	f0 e0       	ldi	r31, 0x00	; 0
    367c:	e0 57       	subi	r30, 0x70	; 112
    367e:	fe 4f       	sbci	r31, 0xFE	; 254
    3680:	80 81       	ld	r24, Z
    3682:	89 27       	eor	r24, r25
    3684:	80 93 e1 06 	sts	0x06E1, r24	; 0x8006e1 <CRC>
							UDR0=EMZ.cap[UART_adress-16];
    3688:	e0 91 e4 06 	lds	r30, 0x06E4	; 0x8006e4 <UART_adress>
    368c:	f0 e0       	ldi	r31, 0x00	; 0
    368e:	e0 57       	subi	r30, 0x70	; 112
    3690:	fe 4f       	sbci	r31, 0xFE	; 254
    3692:	80 81       	ld	r24, Z
    3694:	88 83       	st	Y, r24
							UART_byte++;
    3696:	80 91 e5 06 	lds	r24, 0x06E5	; 0x8006e5 <UART_byte>
    369a:	8f 5f       	subi	r24, 0xFF	; 255
    369c:	80 93 e5 06 	sts	0x06E5, r24	; 0x8006e5 <UART_byte>
    36a0:	9f c6       	rjmp	.+3390   	; 0x43e0 <main+0x1d80>
						}
						break;
					case 40:						//ЭМЗ-18/50
						if(UCSR0A & (1<<UDRE0)){
    36a2:	d8 01       	movw	r26, r16
    36a4:	8c 91       	ld	r24, X
    36a6:	85 ff       	sbrs	r24, 5
    36a8:	9b c6       	rjmp	.+3382   	; 0x43e0 <main+0x1d80>
							CRC^=EMZ.status[UART_adress-15];
    36aa:	e0 91 e4 06 	lds	r30, 0x06E4	; 0x8006e4 <UART_adress>
    36ae:	90 91 e1 06 	lds	r25, 0x06E1	; 0x8006e1 <CRC>
    36b2:	f0 e0       	ldi	r31, 0x00	; 0
    36b4:	ef 50       	subi	r30, 0x0F	; 15
    36b6:	ff 4f       	sbci	r31, 0xFF	; 255
    36b8:	80 81       	ld	r24, Z
    36ba:	89 27       	eor	r24, r25
    36bc:	80 93 e1 06 	sts	0x06E1, r24	; 0x8006e1 <CRC>
							UDR0=EMZ.status[UART_adress-15];
    36c0:	e0 91 e4 06 	lds	r30, 0x06E4	; 0x8006e4 <UART_adress>
    36c4:	f0 e0       	ldi	r31, 0x00	; 0
    36c6:	ef 50       	subi	r30, 0x0F	; 15
    36c8:	ff 4f       	sbci	r31, 0xFF	; 255
    36ca:	80 81       	ld	r24, Z
    36cc:	88 83       	st	Y, r24
							UART_byte++;
    36ce:	80 91 e5 06 	lds	r24, 0x06E5	; 0x8006e5 <UART_byte>
    36d2:	8f 5f       	subi	r24, 0xFF	; 255
    36d4:	80 93 e5 06 	sts	0x06E5, r24	; 0x8006e5 <UART_byte>
    36d8:	83 c6       	rjmp	.+3334   	; 0x43e0 <main+0x1d80>
						}
						break;
					case 41:
						if(UCSR0A & (1<<UDRE0)){
    36da:	f8 01       	movw	r30, r16
    36dc:	80 81       	ld	r24, Z
    36de:	85 ff       	sbrs	r24, 5
    36e0:	7f c6       	rjmp	.+3326   	; 0x43e0 <main+0x1d80>
							CRC^=EMZ.cap[UART_adress-15];
    36e2:	e0 91 e4 06 	lds	r30, 0x06E4	; 0x8006e4 <UART_adress>
    36e6:	90 91 e1 06 	lds	r25, 0x06E1	; 0x8006e1 <CRC>
    36ea:	f0 e0       	ldi	r31, 0x00	; 0
    36ec:	ef 56       	subi	r30, 0x6F	; 111
    36ee:	fe 4f       	sbci	r31, 0xFE	; 254
    36f0:	80 81       	ld	r24, Z
    36f2:	89 27       	eor	r24, r25
    36f4:	80 93 e1 06 	sts	0x06E1, r24	; 0x8006e1 <CRC>
							UDR0=EMZ.cap[UART_adress-15];
    36f8:	e0 91 e4 06 	lds	r30, 0x06E4	; 0x8006e4 <UART_adress>
    36fc:	f0 e0       	ldi	r31, 0x00	; 0
    36fe:	ef 56       	subi	r30, 0x6F	; 111
    3700:	fe 4f       	sbci	r31, 0xFE	; 254
    3702:	80 81       	ld	r24, Z
    3704:	88 83       	st	Y, r24
							UART_byte++;
    3706:	80 91 e5 06 	lds	r24, 0x06E5	; 0x8006e5 <UART_byte>
    370a:	8f 5f       	subi	r24, 0xFF	; 255
    370c:	80 93 e5 06 	sts	0x06E5, r24	; 0x8006e5 <UART_byte>
    3710:	67 c6       	rjmp	.+3278   	; 0x43e0 <main+0x1d80>
						}
						break;
					case 42:							//ЭМЗ-19/51
						if(UCSR0A & (1<<UDRE0)){
    3712:	d8 01       	movw	r26, r16
    3714:	8c 91       	ld	r24, X
    3716:	85 ff       	sbrs	r24, 5
    3718:	63 c6       	rjmp	.+3270   	; 0x43e0 <main+0x1d80>
							CRC^=EMZ.status[UART_adress-14];
    371a:	e0 91 e4 06 	lds	r30, 0x06E4	; 0x8006e4 <UART_adress>
    371e:	90 91 e1 06 	lds	r25, 0x06E1	; 0x8006e1 <CRC>
    3722:	f0 e0       	ldi	r31, 0x00	; 0
    3724:	ee 50       	subi	r30, 0x0E	; 14
    3726:	ff 4f       	sbci	r31, 0xFF	; 255
    3728:	80 81       	ld	r24, Z
    372a:	89 27       	eor	r24, r25
    372c:	80 93 e1 06 	sts	0x06E1, r24	; 0x8006e1 <CRC>
							UDR0=EMZ.status[UART_adress-14];
    3730:	e0 91 e4 06 	lds	r30, 0x06E4	; 0x8006e4 <UART_adress>
    3734:	f0 e0       	ldi	r31, 0x00	; 0
    3736:	ee 50       	subi	r30, 0x0E	; 14
    3738:	ff 4f       	sbci	r31, 0xFF	; 255
    373a:	80 81       	ld	r24, Z
    373c:	88 83       	st	Y, r24
							UART_byte++;
    373e:	80 91 e5 06 	lds	r24, 0x06E5	; 0x8006e5 <UART_byte>
    3742:	8f 5f       	subi	r24, 0xFF	; 255
    3744:	80 93 e5 06 	sts	0x06E5, r24	; 0x8006e5 <UART_byte>
    3748:	4b c6       	rjmp	.+3222   	; 0x43e0 <main+0x1d80>
						}
						break;
					case 43:
						if(UCSR0A & (1<<UDRE0)){
    374a:	f8 01       	movw	r30, r16
    374c:	80 81       	ld	r24, Z
    374e:	85 ff       	sbrs	r24, 5
    3750:	47 c6       	rjmp	.+3214   	; 0x43e0 <main+0x1d80>
							CRC^=EMZ.cap[UART_adress-14];
    3752:	e0 91 e4 06 	lds	r30, 0x06E4	; 0x8006e4 <UART_adress>
    3756:	90 91 e1 06 	lds	r25, 0x06E1	; 0x8006e1 <CRC>
    375a:	f0 e0       	ldi	r31, 0x00	; 0
    375c:	ee 56       	subi	r30, 0x6E	; 110
    375e:	fe 4f       	sbci	r31, 0xFE	; 254
    3760:	80 81       	ld	r24, Z
    3762:	89 27       	eor	r24, r25
    3764:	80 93 e1 06 	sts	0x06E1, r24	; 0x8006e1 <CRC>
							UDR0=EMZ.cap[UART_adress-14];
    3768:	e0 91 e4 06 	lds	r30, 0x06E4	; 0x8006e4 <UART_adress>
    376c:	f0 e0       	ldi	r31, 0x00	; 0
    376e:	ee 56       	subi	r30, 0x6E	; 110
    3770:	fe 4f       	sbci	r31, 0xFE	; 254
    3772:	80 81       	ld	r24, Z
    3774:	88 83       	st	Y, r24
							UART_byte++;
    3776:	80 91 e5 06 	lds	r24, 0x06E5	; 0x8006e5 <UART_byte>
    377a:	8f 5f       	subi	r24, 0xFF	; 255
    377c:	80 93 e5 06 	sts	0x06E5, r24	; 0x8006e5 <UART_byte>
    3780:	2f c6       	rjmp	.+3166   	; 0x43e0 <main+0x1d80>
						}
						break;
					case 44:							//ЭМЗ-20/52
						if(UCSR0A & (1<<UDRE0)){
    3782:	d8 01       	movw	r26, r16
    3784:	8c 91       	ld	r24, X
    3786:	85 ff       	sbrs	r24, 5
    3788:	2b c6       	rjmp	.+3158   	; 0x43e0 <main+0x1d80>
							CRC^=EMZ.status[UART_adress-13];
    378a:	e0 91 e4 06 	lds	r30, 0x06E4	; 0x8006e4 <UART_adress>
    378e:	90 91 e1 06 	lds	r25, 0x06E1	; 0x8006e1 <CRC>
    3792:	f0 e0       	ldi	r31, 0x00	; 0
    3794:	ed 50       	subi	r30, 0x0D	; 13
    3796:	ff 4f       	sbci	r31, 0xFF	; 255
    3798:	80 81       	ld	r24, Z
    379a:	89 27       	eor	r24, r25
    379c:	80 93 e1 06 	sts	0x06E1, r24	; 0x8006e1 <CRC>
							UDR0=EMZ.status[UART_adress-13];
    37a0:	e0 91 e4 06 	lds	r30, 0x06E4	; 0x8006e4 <UART_adress>
    37a4:	f0 e0       	ldi	r31, 0x00	; 0
    37a6:	ed 50       	subi	r30, 0x0D	; 13
    37a8:	ff 4f       	sbci	r31, 0xFF	; 255
    37aa:	80 81       	ld	r24, Z
    37ac:	88 83       	st	Y, r24
							UART_byte++;
    37ae:	80 91 e5 06 	lds	r24, 0x06E5	; 0x8006e5 <UART_byte>
    37b2:	8f 5f       	subi	r24, 0xFF	; 255
    37b4:	80 93 e5 06 	sts	0x06E5, r24	; 0x8006e5 <UART_byte>
    37b8:	13 c6       	rjmp	.+3110   	; 0x43e0 <main+0x1d80>
						}
						break;
					case 45:
						if(UCSR0A & (1<<UDRE0)){
    37ba:	f8 01       	movw	r30, r16
    37bc:	80 81       	ld	r24, Z
    37be:	85 ff       	sbrs	r24, 5
    37c0:	0f c6       	rjmp	.+3102   	; 0x43e0 <main+0x1d80>
							CRC^=EMZ.cap[UART_adress-13];
    37c2:	e0 91 e4 06 	lds	r30, 0x06E4	; 0x8006e4 <UART_adress>
    37c6:	90 91 e1 06 	lds	r25, 0x06E1	; 0x8006e1 <CRC>
    37ca:	f0 e0       	ldi	r31, 0x00	; 0
    37cc:	ed 56       	subi	r30, 0x6D	; 109
    37ce:	fe 4f       	sbci	r31, 0xFE	; 254
    37d0:	80 81       	ld	r24, Z
    37d2:	89 27       	eor	r24, r25
    37d4:	80 93 e1 06 	sts	0x06E1, r24	; 0x8006e1 <CRC>
							UDR0=EMZ.cap[UART_adress-13];
    37d8:	e0 91 e4 06 	lds	r30, 0x06E4	; 0x8006e4 <UART_adress>
    37dc:	f0 e0       	ldi	r31, 0x00	; 0
    37de:	ed 56       	subi	r30, 0x6D	; 109
    37e0:	fe 4f       	sbci	r31, 0xFE	; 254
    37e2:	80 81       	ld	r24, Z
    37e4:	88 83       	st	Y, r24
							UART_byte++;
    37e6:	80 91 e5 06 	lds	r24, 0x06E5	; 0x8006e5 <UART_byte>
    37ea:	8f 5f       	subi	r24, 0xFF	; 255
    37ec:	80 93 e5 06 	sts	0x06E5, r24	; 0x8006e5 <UART_byte>
    37f0:	f7 c5       	rjmp	.+3054   	; 0x43e0 <main+0x1d80>
						}
						break;
					case 46:							//ЭМЗ-21/53
						if(UCSR0A & (1<<UDRE0)){
    37f2:	d8 01       	movw	r26, r16
    37f4:	8c 91       	ld	r24, X
    37f6:	85 ff       	sbrs	r24, 5
    37f8:	f3 c5       	rjmp	.+3046   	; 0x43e0 <main+0x1d80>
							CRC^=EMZ.status[UART_adress-12];
    37fa:	e0 91 e4 06 	lds	r30, 0x06E4	; 0x8006e4 <UART_adress>
    37fe:	90 91 e1 06 	lds	r25, 0x06E1	; 0x8006e1 <CRC>
    3802:	f0 e0       	ldi	r31, 0x00	; 0
    3804:	ec 50       	subi	r30, 0x0C	; 12
    3806:	ff 4f       	sbci	r31, 0xFF	; 255
    3808:	80 81       	ld	r24, Z
    380a:	89 27       	eor	r24, r25
    380c:	80 93 e1 06 	sts	0x06E1, r24	; 0x8006e1 <CRC>
							UDR0=EMZ.status[UART_adress-12];
    3810:	e0 91 e4 06 	lds	r30, 0x06E4	; 0x8006e4 <UART_adress>
    3814:	f0 e0       	ldi	r31, 0x00	; 0
    3816:	ec 50       	subi	r30, 0x0C	; 12
    3818:	ff 4f       	sbci	r31, 0xFF	; 255
    381a:	80 81       	ld	r24, Z
    381c:	88 83       	st	Y, r24
							UART_byte++;
    381e:	80 91 e5 06 	lds	r24, 0x06E5	; 0x8006e5 <UART_byte>
    3822:	8f 5f       	subi	r24, 0xFF	; 255
    3824:	80 93 e5 06 	sts	0x06E5, r24	; 0x8006e5 <UART_byte>
    3828:	db c5       	rjmp	.+2998   	; 0x43e0 <main+0x1d80>
						}
						break;
					case 47:
						if(UCSR0A & (1<<UDRE0)){
    382a:	f8 01       	movw	r30, r16
    382c:	80 81       	ld	r24, Z
    382e:	85 ff       	sbrs	r24, 5
    3830:	d7 c5       	rjmp	.+2990   	; 0x43e0 <main+0x1d80>
							CRC^=EMZ.cap[UART_adress-12];
    3832:	e0 91 e4 06 	lds	r30, 0x06E4	; 0x8006e4 <UART_adress>
    3836:	90 91 e1 06 	lds	r25, 0x06E1	; 0x8006e1 <CRC>
    383a:	f0 e0       	ldi	r31, 0x00	; 0
    383c:	ec 56       	subi	r30, 0x6C	; 108
    383e:	fe 4f       	sbci	r31, 0xFE	; 254
    3840:	80 81       	ld	r24, Z
    3842:	89 27       	eor	r24, r25
    3844:	80 93 e1 06 	sts	0x06E1, r24	; 0x8006e1 <CRC>
							UDR0=EMZ.cap[UART_adress-12];
    3848:	e0 91 e4 06 	lds	r30, 0x06E4	; 0x8006e4 <UART_adress>
    384c:	f0 e0       	ldi	r31, 0x00	; 0
    384e:	ec 56       	subi	r30, 0x6C	; 108
    3850:	fe 4f       	sbci	r31, 0xFE	; 254
    3852:	80 81       	ld	r24, Z
    3854:	88 83       	st	Y, r24
							UART_byte++;
    3856:	80 91 e5 06 	lds	r24, 0x06E5	; 0x8006e5 <UART_byte>
    385a:	8f 5f       	subi	r24, 0xFF	; 255
    385c:	80 93 e5 06 	sts	0x06E5, r24	; 0x8006e5 <UART_byte>
    3860:	bf c5       	rjmp	.+2942   	; 0x43e0 <main+0x1d80>
						}
						break;
					case 48:							//ЭМЗ-22/54
						if(UCSR0A & (1<<UDRE0)){
    3862:	d8 01       	movw	r26, r16
    3864:	8c 91       	ld	r24, X
    3866:	85 ff       	sbrs	r24, 5
    3868:	bb c5       	rjmp	.+2934   	; 0x43e0 <main+0x1d80>
							CRC^=EMZ.status[UART_adress-11];
    386a:	e0 91 e4 06 	lds	r30, 0x06E4	; 0x8006e4 <UART_adress>
    386e:	90 91 e1 06 	lds	r25, 0x06E1	; 0x8006e1 <CRC>
    3872:	f0 e0       	ldi	r31, 0x00	; 0
    3874:	eb 50       	subi	r30, 0x0B	; 11
    3876:	ff 4f       	sbci	r31, 0xFF	; 255
    3878:	80 81       	ld	r24, Z
    387a:	89 27       	eor	r24, r25
    387c:	80 93 e1 06 	sts	0x06E1, r24	; 0x8006e1 <CRC>
							UDR0=EMZ.status[UART_adress-11];
    3880:	e0 91 e4 06 	lds	r30, 0x06E4	; 0x8006e4 <UART_adress>
    3884:	f0 e0       	ldi	r31, 0x00	; 0
    3886:	eb 50       	subi	r30, 0x0B	; 11
    3888:	ff 4f       	sbci	r31, 0xFF	; 255
    388a:	80 81       	ld	r24, Z
    388c:	88 83       	st	Y, r24
							UART_byte++;
    388e:	80 91 e5 06 	lds	r24, 0x06E5	; 0x8006e5 <UART_byte>
    3892:	8f 5f       	subi	r24, 0xFF	; 255
    3894:	80 93 e5 06 	sts	0x06E5, r24	; 0x8006e5 <UART_byte>
    3898:	a3 c5       	rjmp	.+2886   	; 0x43e0 <main+0x1d80>
						}
						break;
					case 49:
						if(UCSR0A & (1<<UDRE0)){
    389a:	f8 01       	movw	r30, r16
    389c:	80 81       	ld	r24, Z
    389e:	85 ff       	sbrs	r24, 5
    38a0:	9f c5       	rjmp	.+2878   	; 0x43e0 <main+0x1d80>
							CRC^=EMZ.cap[UART_adress-11];
    38a2:	e0 91 e4 06 	lds	r30, 0x06E4	; 0x8006e4 <UART_adress>
    38a6:	90 91 e1 06 	lds	r25, 0x06E1	; 0x8006e1 <CRC>
    38aa:	f0 e0       	ldi	r31, 0x00	; 0
    38ac:	eb 56       	subi	r30, 0x6B	; 107
    38ae:	fe 4f       	sbci	r31, 0xFE	; 254
    38b0:	80 81       	ld	r24, Z
    38b2:	89 27       	eor	r24, r25
    38b4:	80 93 e1 06 	sts	0x06E1, r24	; 0x8006e1 <CRC>
							UDR0=EMZ.cap[UART_adress-11];
    38b8:	e0 91 e4 06 	lds	r30, 0x06E4	; 0x8006e4 <UART_adress>
    38bc:	f0 e0       	ldi	r31, 0x00	; 0
    38be:	eb 56       	subi	r30, 0x6B	; 107
    38c0:	fe 4f       	sbci	r31, 0xFE	; 254
    38c2:	80 81       	ld	r24, Z
    38c4:	88 83       	st	Y, r24
							UART_byte++;
    38c6:	80 91 e5 06 	lds	r24, 0x06E5	; 0x8006e5 <UART_byte>
    38ca:	8f 5f       	subi	r24, 0xFF	; 255
    38cc:	80 93 e5 06 	sts	0x06E5, r24	; 0x8006e5 <UART_byte>
    38d0:	87 c5       	rjmp	.+2830   	; 0x43e0 <main+0x1d80>
						}
						break;
					case 50:							//ЭМЗ-23/55
						if(UCSR0A & (1<<UDRE0)){
    38d2:	d8 01       	movw	r26, r16
    38d4:	8c 91       	ld	r24, X
    38d6:	85 ff       	sbrs	r24, 5
    38d8:	83 c5       	rjmp	.+2822   	; 0x43e0 <main+0x1d80>
							CRC^=EMZ.status[UART_adress-10];
    38da:	e0 91 e4 06 	lds	r30, 0x06E4	; 0x8006e4 <UART_adress>
    38de:	90 91 e1 06 	lds	r25, 0x06E1	; 0x8006e1 <CRC>
    38e2:	f0 e0       	ldi	r31, 0x00	; 0
    38e4:	ea 50       	subi	r30, 0x0A	; 10
    38e6:	ff 4f       	sbci	r31, 0xFF	; 255
    38e8:	80 81       	ld	r24, Z
    38ea:	89 27       	eor	r24, r25
    38ec:	80 93 e1 06 	sts	0x06E1, r24	; 0x8006e1 <CRC>
							UDR0=EMZ.status[UART_adress-10];
    38f0:	e0 91 e4 06 	lds	r30, 0x06E4	; 0x8006e4 <UART_adress>
    38f4:	f0 e0       	ldi	r31, 0x00	; 0
    38f6:	ea 50       	subi	r30, 0x0A	; 10
    38f8:	ff 4f       	sbci	r31, 0xFF	; 255
    38fa:	80 81       	ld	r24, Z
    38fc:	88 83       	st	Y, r24
							UART_byte++;
    38fe:	80 91 e5 06 	lds	r24, 0x06E5	; 0x8006e5 <UART_byte>
    3902:	8f 5f       	subi	r24, 0xFF	; 255
    3904:	80 93 e5 06 	sts	0x06E5, r24	; 0x8006e5 <UART_byte>
    3908:	6b c5       	rjmp	.+2774   	; 0x43e0 <main+0x1d80>
						}
						break;
					case 51:
						if(UCSR0A & (1<<UDRE0)){
    390a:	f8 01       	movw	r30, r16
    390c:	80 81       	ld	r24, Z
    390e:	85 ff       	sbrs	r24, 5
    3910:	67 c5       	rjmp	.+2766   	; 0x43e0 <main+0x1d80>
							CRC^=EMZ.cap[UART_adress-10];
    3912:	e0 91 e4 06 	lds	r30, 0x06E4	; 0x8006e4 <UART_adress>
    3916:	90 91 e1 06 	lds	r25, 0x06E1	; 0x8006e1 <CRC>
    391a:	f0 e0       	ldi	r31, 0x00	; 0
    391c:	ea 56       	subi	r30, 0x6A	; 106
    391e:	fe 4f       	sbci	r31, 0xFE	; 254
    3920:	80 81       	ld	r24, Z
    3922:	89 27       	eor	r24, r25
    3924:	80 93 e1 06 	sts	0x06E1, r24	; 0x8006e1 <CRC>
							UDR0=EMZ.cap[UART_adress-10];
    3928:	e0 91 e4 06 	lds	r30, 0x06E4	; 0x8006e4 <UART_adress>
    392c:	f0 e0       	ldi	r31, 0x00	; 0
    392e:	ea 56       	subi	r30, 0x6A	; 106
    3930:	fe 4f       	sbci	r31, 0xFE	; 254
    3932:	80 81       	ld	r24, Z
    3934:	88 83       	st	Y, r24
							UART_byte++;
    3936:	80 91 e5 06 	lds	r24, 0x06E5	; 0x8006e5 <UART_byte>
    393a:	8f 5f       	subi	r24, 0xFF	; 255
    393c:	80 93 e5 06 	sts	0x06E5, r24	; 0x8006e5 <UART_byte>
    3940:	4f c5       	rjmp	.+2718   	; 0x43e0 <main+0x1d80>
						}
						break;
					case 52:							//ЭМЗ-24/56
						if(UCSR0A & (1<<UDRE0)){
    3942:	d8 01       	movw	r26, r16
    3944:	8c 91       	ld	r24, X
    3946:	85 ff       	sbrs	r24, 5
    3948:	4b c5       	rjmp	.+2710   	; 0x43e0 <main+0x1d80>
							CRC^=EMZ.status[UART_adress-9];
    394a:	e0 91 e4 06 	lds	r30, 0x06E4	; 0x8006e4 <UART_adress>
    394e:	90 91 e1 06 	lds	r25, 0x06E1	; 0x8006e1 <CRC>
    3952:	f0 e0       	ldi	r31, 0x00	; 0
    3954:	e9 50       	subi	r30, 0x09	; 9
    3956:	ff 4f       	sbci	r31, 0xFF	; 255
    3958:	80 81       	ld	r24, Z
    395a:	89 27       	eor	r24, r25
    395c:	80 93 e1 06 	sts	0x06E1, r24	; 0x8006e1 <CRC>
							UDR0=EMZ.status[UART_adress-9];
    3960:	e0 91 e4 06 	lds	r30, 0x06E4	; 0x8006e4 <UART_adress>
    3964:	f0 e0       	ldi	r31, 0x00	; 0
    3966:	e9 50       	subi	r30, 0x09	; 9
    3968:	ff 4f       	sbci	r31, 0xFF	; 255
    396a:	80 81       	ld	r24, Z
    396c:	88 83       	st	Y, r24
							UART_byte++;
    396e:	80 91 e5 06 	lds	r24, 0x06E5	; 0x8006e5 <UART_byte>
    3972:	8f 5f       	subi	r24, 0xFF	; 255
    3974:	80 93 e5 06 	sts	0x06E5, r24	; 0x8006e5 <UART_byte>
    3978:	33 c5       	rjmp	.+2662   	; 0x43e0 <main+0x1d80>
						}
						break;
					case 53:
						if(UCSR0A & (1<<UDRE0)){
    397a:	f8 01       	movw	r30, r16
    397c:	80 81       	ld	r24, Z
    397e:	85 ff       	sbrs	r24, 5
    3980:	2f c5       	rjmp	.+2654   	; 0x43e0 <main+0x1d80>
							CRC^=EMZ.cap[UART_adress-9];
    3982:	e0 91 e4 06 	lds	r30, 0x06E4	; 0x8006e4 <UART_adress>
    3986:	90 91 e1 06 	lds	r25, 0x06E1	; 0x8006e1 <CRC>
    398a:	f0 e0       	ldi	r31, 0x00	; 0
    398c:	e9 56       	subi	r30, 0x69	; 105
    398e:	fe 4f       	sbci	r31, 0xFE	; 254
    3990:	80 81       	ld	r24, Z
    3992:	89 27       	eor	r24, r25
    3994:	80 93 e1 06 	sts	0x06E1, r24	; 0x8006e1 <CRC>
							UDR0=EMZ.cap[UART_adress-9];
    3998:	e0 91 e4 06 	lds	r30, 0x06E4	; 0x8006e4 <UART_adress>
    399c:	f0 e0       	ldi	r31, 0x00	; 0
    399e:	e9 56       	subi	r30, 0x69	; 105
    39a0:	fe 4f       	sbci	r31, 0xFE	; 254
    39a2:	80 81       	ld	r24, Z
    39a4:	88 83       	st	Y, r24
							UART_byte++;
    39a6:	80 91 e5 06 	lds	r24, 0x06E5	; 0x8006e5 <UART_byte>
    39aa:	8f 5f       	subi	r24, 0xFF	; 255
    39ac:	80 93 e5 06 	sts	0x06E5, r24	; 0x8006e5 <UART_byte>
    39b0:	17 c5       	rjmp	.+2606   	; 0x43e0 <main+0x1d80>
						}
						break;
					case 54:							//ЭМЗ-25/57
						if(UCSR0A & (1<<UDRE0)){
    39b2:	d8 01       	movw	r26, r16
    39b4:	8c 91       	ld	r24, X
    39b6:	85 ff       	sbrs	r24, 5
    39b8:	13 c5       	rjmp	.+2598   	; 0x43e0 <main+0x1d80>
							CRC^=EMZ.status[UART_adress-8];
    39ba:	e0 91 e4 06 	lds	r30, 0x06E4	; 0x8006e4 <UART_adress>
    39be:	90 91 e1 06 	lds	r25, 0x06E1	; 0x8006e1 <CRC>
    39c2:	f0 e0       	ldi	r31, 0x00	; 0
    39c4:	e8 50       	subi	r30, 0x08	; 8
    39c6:	ff 4f       	sbci	r31, 0xFF	; 255
    39c8:	80 81       	ld	r24, Z
    39ca:	89 27       	eor	r24, r25
    39cc:	80 93 e1 06 	sts	0x06E1, r24	; 0x8006e1 <CRC>
							UDR0=EMZ.status[UART_adress-8];
    39d0:	e0 91 e4 06 	lds	r30, 0x06E4	; 0x8006e4 <UART_adress>
    39d4:	f0 e0       	ldi	r31, 0x00	; 0
    39d6:	e8 50       	subi	r30, 0x08	; 8
    39d8:	ff 4f       	sbci	r31, 0xFF	; 255
    39da:	80 81       	ld	r24, Z
    39dc:	88 83       	st	Y, r24
							UART_byte++;
    39de:	80 91 e5 06 	lds	r24, 0x06E5	; 0x8006e5 <UART_byte>
    39e2:	8f 5f       	subi	r24, 0xFF	; 255
    39e4:	80 93 e5 06 	sts	0x06E5, r24	; 0x8006e5 <UART_byte>
    39e8:	fb c4       	rjmp	.+2550   	; 0x43e0 <main+0x1d80>
						}
						break;
					case 55:
						if(UCSR0A & (1<<UDRE0)){
    39ea:	f8 01       	movw	r30, r16
    39ec:	80 81       	ld	r24, Z
    39ee:	85 ff       	sbrs	r24, 5
    39f0:	f7 c4       	rjmp	.+2542   	; 0x43e0 <main+0x1d80>
							CRC^=EMZ.cap[UART_adress-8];
    39f2:	e0 91 e4 06 	lds	r30, 0x06E4	; 0x8006e4 <UART_adress>
    39f6:	90 91 e1 06 	lds	r25, 0x06E1	; 0x8006e1 <CRC>
    39fa:	f0 e0       	ldi	r31, 0x00	; 0
    39fc:	e8 56       	subi	r30, 0x68	; 104
    39fe:	fe 4f       	sbci	r31, 0xFE	; 254
    3a00:	80 81       	ld	r24, Z
    3a02:	89 27       	eor	r24, r25
    3a04:	80 93 e1 06 	sts	0x06E1, r24	; 0x8006e1 <CRC>
							UDR0=EMZ.cap[UART_adress-8];
    3a08:	e0 91 e4 06 	lds	r30, 0x06E4	; 0x8006e4 <UART_adress>
    3a0c:	f0 e0       	ldi	r31, 0x00	; 0
    3a0e:	e8 56       	subi	r30, 0x68	; 104
    3a10:	fe 4f       	sbci	r31, 0xFE	; 254
    3a12:	80 81       	ld	r24, Z
    3a14:	88 83       	st	Y, r24
							UART_byte++;
    3a16:	80 91 e5 06 	lds	r24, 0x06E5	; 0x8006e5 <UART_byte>
    3a1a:	8f 5f       	subi	r24, 0xFF	; 255
    3a1c:	80 93 e5 06 	sts	0x06E5, r24	; 0x8006e5 <UART_byte>
    3a20:	df c4       	rjmp	.+2494   	; 0x43e0 <main+0x1d80>
						}
						break;
					case 56:							//ЭМЗ-26/58
						if(UCSR0A & (1<<UDRE0)){
    3a22:	d8 01       	movw	r26, r16
    3a24:	8c 91       	ld	r24, X
    3a26:	85 ff       	sbrs	r24, 5
    3a28:	db c4       	rjmp	.+2486   	; 0x43e0 <main+0x1d80>
							CRC^=EMZ.status[UART_adress-7];
    3a2a:	e0 91 e4 06 	lds	r30, 0x06E4	; 0x8006e4 <UART_adress>
    3a2e:	90 91 e1 06 	lds	r25, 0x06E1	; 0x8006e1 <CRC>
    3a32:	f0 e0       	ldi	r31, 0x00	; 0
    3a34:	e7 50       	subi	r30, 0x07	; 7
    3a36:	ff 4f       	sbci	r31, 0xFF	; 255
    3a38:	80 81       	ld	r24, Z
    3a3a:	89 27       	eor	r24, r25
    3a3c:	80 93 e1 06 	sts	0x06E1, r24	; 0x8006e1 <CRC>
							UDR0=EMZ.status[UART_adress-7];
    3a40:	e0 91 e4 06 	lds	r30, 0x06E4	; 0x8006e4 <UART_adress>
    3a44:	f0 e0       	ldi	r31, 0x00	; 0
    3a46:	e7 50       	subi	r30, 0x07	; 7
    3a48:	ff 4f       	sbci	r31, 0xFF	; 255
    3a4a:	80 81       	ld	r24, Z
    3a4c:	88 83       	st	Y, r24
							UART_byte++;
    3a4e:	80 91 e5 06 	lds	r24, 0x06E5	; 0x8006e5 <UART_byte>
    3a52:	8f 5f       	subi	r24, 0xFF	; 255
    3a54:	80 93 e5 06 	sts	0x06E5, r24	; 0x8006e5 <UART_byte>
    3a58:	c3 c4       	rjmp	.+2438   	; 0x43e0 <main+0x1d80>
						}
						break;
					case 57:
						if(UCSR0A & (1<<UDRE0)){
    3a5a:	f8 01       	movw	r30, r16
    3a5c:	80 81       	ld	r24, Z
    3a5e:	85 ff       	sbrs	r24, 5
    3a60:	bf c4       	rjmp	.+2430   	; 0x43e0 <main+0x1d80>
							CRC^=EMZ.cap[UART_adress-7];
    3a62:	e0 91 e4 06 	lds	r30, 0x06E4	; 0x8006e4 <UART_adress>
    3a66:	90 91 e1 06 	lds	r25, 0x06E1	; 0x8006e1 <CRC>
    3a6a:	f0 e0       	ldi	r31, 0x00	; 0
    3a6c:	e7 56       	subi	r30, 0x67	; 103
    3a6e:	fe 4f       	sbci	r31, 0xFE	; 254
    3a70:	80 81       	ld	r24, Z
    3a72:	89 27       	eor	r24, r25
    3a74:	80 93 e1 06 	sts	0x06E1, r24	; 0x8006e1 <CRC>
							UDR0=EMZ.cap[UART_adress-7];
    3a78:	e0 91 e4 06 	lds	r30, 0x06E4	; 0x8006e4 <UART_adress>
    3a7c:	f0 e0       	ldi	r31, 0x00	; 0
    3a7e:	e7 56       	subi	r30, 0x67	; 103
    3a80:	fe 4f       	sbci	r31, 0xFE	; 254
    3a82:	80 81       	ld	r24, Z
    3a84:	88 83       	st	Y, r24
							UART_byte++;
    3a86:	80 91 e5 06 	lds	r24, 0x06E5	; 0x8006e5 <UART_byte>
    3a8a:	8f 5f       	subi	r24, 0xFF	; 255
    3a8c:	80 93 e5 06 	sts	0x06E5, r24	; 0x8006e5 <UART_byte>
    3a90:	a7 c4       	rjmp	.+2382   	; 0x43e0 <main+0x1d80>
						}
						break;
					case 58:							//ЭМЗ-27/59
						if(UCSR0A & (1<<UDRE0)){
    3a92:	d8 01       	movw	r26, r16
    3a94:	8c 91       	ld	r24, X
    3a96:	85 ff       	sbrs	r24, 5
    3a98:	a3 c4       	rjmp	.+2374   	; 0x43e0 <main+0x1d80>
							CRC^=EMZ.status[UART_adress-6];
    3a9a:	e0 91 e4 06 	lds	r30, 0x06E4	; 0x8006e4 <UART_adress>
    3a9e:	90 91 e1 06 	lds	r25, 0x06E1	; 0x8006e1 <CRC>
    3aa2:	f0 e0       	ldi	r31, 0x00	; 0
    3aa4:	e6 50       	subi	r30, 0x06	; 6
    3aa6:	ff 4f       	sbci	r31, 0xFF	; 255
    3aa8:	80 81       	ld	r24, Z
    3aaa:	89 27       	eor	r24, r25
    3aac:	80 93 e1 06 	sts	0x06E1, r24	; 0x8006e1 <CRC>
							UDR0=EMZ.status[UART_adress-6];
    3ab0:	e0 91 e4 06 	lds	r30, 0x06E4	; 0x8006e4 <UART_adress>
    3ab4:	f0 e0       	ldi	r31, 0x00	; 0
    3ab6:	e6 50       	subi	r30, 0x06	; 6
    3ab8:	ff 4f       	sbci	r31, 0xFF	; 255
    3aba:	80 81       	ld	r24, Z
    3abc:	88 83       	st	Y, r24
							UART_byte++;
    3abe:	80 91 e5 06 	lds	r24, 0x06E5	; 0x8006e5 <UART_byte>
    3ac2:	8f 5f       	subi	r24, 0xFF	; 255
    3ac4:	80 93 e5 06 	sts	0x06E5, r24	; 0x8006e5 <UART_byte>
    3ac8:	8b c4       	rjmp	.+2326   	; 0x43e0 <main+0x1d80>
						}
						break;
					case 59:
						if(UCSR0A & (1<<UDRE0)){
    3aca:	f8 01       	movw	r30, r16
    3acc:	80 81       	ld	r24, Z
    3ace:	85 ff       	sbrs	r24, 5
    3ad0:	87 c4       	rjmp	.+2318   	; 0x43e0 <main+0x1d80>
							CRC^=EMZ.cap[UART_adress-6];
    3ad2:	e0 91 e4 06 	lds	r30, 0x06E4	; 0x8006e4 <UART_adress>
    3ad6:	90 91 e1 06 	lds	r25, 0x06E1	; 0x8006e1 <CRC>
    3ada:	f0 e0       	ldi	r31, 0x00	; 0
    3adc:	e6 56       	subi	r30, 0x66	; 102
    3ade:	fe 4f       	sbci	r31, 0xFE	; 254
    3ae0:	80 81       	ld	r24, Z
    3ae2:	89 27       	eor	r24, r25
    3ae4:	80 93 e1 06 	sts	0x06E1, r24	; 0x8006e1 <CRC>
							UDR0=EMZ.cap[UART_adress-6];
    3ae8:	e0 91 e4 06 	lds	r30, 0x06E4	; 0x8006e4 <UART_adress>
    3aec:	f0 e0       	ldi	r31, 0x00	; 0
    3aee:	e6 56       	subi	r30, 0x66	; 102
    3af0:	fe 4f       	sbci	r31, 0xFE	; 254
    3af2:	80 81       	ld	r24, Z
    3af4:	88 83       	st	Y, r24
							UART_byte++;
    3af6:	80 91 e5 06 	lds	r24, 0x06E5	; 0x8006e5 <UART_byte>
    3afa:	8f 5f       	subi	r24, 0xFF	; 255
    3afc:	80 93 e5 06 	sts	0x06E5, r24	; 0x8006e5 <UART_byte>
    3b00:	6f c4       	rjmp	.+2270   	; 0x43e0 <main+0x1d80>
						}
						break;
					case 60:							//ЭМЗ-28/60
						if(UCSR0A & (1<<UDRE0)){
    3b02:	d8 01       	movw	r26, r16
    3b04:	8c 91       	ld	r24, X
    3b06:	85 ff       	sbrs	r24, 5
    3b08:	6b c4       	rjmp	.+2262   	; 0x43e0 <main+0x1d80>
							CRC^=EMZ.status[UART_adress-5];
    3b0a:	e0 91 e4 06 	lds	r30, 0x06E4	; 0x8006e4 <UART_adress>
    3b0e:	90 91 e1 06 	lds	r25, 0x06E1	; 0x8006e1 <CRC>
    3b12:	f0 e0       	ldi	r31, 0x00	; 0
    3b14:	e5 50       	subi	r30, 0x05	; 5
    3b16:	ff 4f       	sbci	r31, 0xFF	; 255
    3b18:	80 81       	ld	r24, Z
    3b1a:	89 27       	eor	r24, r25
    3b1c:	80 93 e1 06 	sts	0x06E1, r24	; 0x8006e1 <CRC>
							UDR0=EMZ.status[UART_adress-5];
    3b20:	e0 91 e4 06 	lds	r30, 0x06E4	; 0x8006e4 <UART_adress>
    3b24:	f0 e0       	ldi	r31, 0x00	; 0
    3b26:	e5 50       	subi	r30, 0x05	; 5
    3b28:	ff 4f       	sbci	r31, 0xFF	; 255
    3b2a:	80 81       	ld	r24, Z
    3b2c:	88 83       	st	Y, r24
							UART_byte++;
    3b2e:	80 91 e5 06 	lds	r24, 0x06E5	; 0x8006e5 <UART_byte>
    3b32:	8f 5f       	subi	r24, 0xFF	; 255
    3b34:	80 93 e5 06 	sts	0x06E5, r24	; 0x8006e5 <UART_byte>
    3b38:	53 c4       	rjmp	.+2214   	; 0x43e0 <main+0x1d80>
						}
						break;
					case 61:
						if(UCSR0A & (1<<UDRE0)){
    3b3a:	f8 01       	movw	r30, r16
    3b3c:	80 81       	ld	r24, Z
    3b3e:	85 ff       	sbrs	r24, 5
    3b40:	4f c4       	rjmp	.+2206   	; 0x43e0 <main+0x1d80>
							CRC^=EMZ.cap[UART_adress-5];
    3b42:	e0 91 e4 06 	lds	r30, 0x06E4	; 0x8006e4 <UART_adress>
    3b46:	90 91 e1 06 	lds	r25, 0x06E1	; 0x8006e1 <CRC>
    3b4a:	f0 e0       	ldi	r31, 0x00	; 0
    3b4c:	e5 56       	subi	r30, 0x65	; 101
    3b4e:	fe 4f       	sbci	r31, 0xFE	; 254
    3b50:	80 81       	ld	r24, Z
    3b52:	89 27       	eor	r24, r25
    3b54:	80 93 e1 06 	sts	0x06E1, r24	; 0x8006e1 <CRC>
							UDR0=EMZ.cap[UART_adress-5];
    3b58:	e0 91 e4 06 	lds	r30, 0x06E4	; 0x8006e4 <UART_adress>
    3b5c:	f0 e0       	ldi	r31, 0x00	; 0
    3b5e:	e5 56       	subi	r30, 0x65	; 101
    3b60:	fe 4f       	sbci	r31, 0xFE	; 254
    3b62:	80 81       	ld	r24, Z
    3b64:	88 83       	st	Y, r24
							UART_byte++;
    3b66:	80 91 e5 06 	lds	r24, 0x06E5	; 0x8006e5 <UART_byte>
    3b6a:	8f 5f       	subi	r24, 0xFF	; 255
    3b6c:	80 93 e5 06 	sts	0x06E5, r24	; 0x8006e5 <UART_byte>
    3b70:	37 c4       	rjmp	.+2158   	; 0x43e0 <main+0x1d80>
						}
						break;
					case 62:							//ЭМЗ-29/61
						if(UCSR0A & (1<<UDRE0)){
    3b72:	d8 01       	movw	r26, r16
    3b74:	8c 91       	ld	r24, X
    3b76:	85 ff       	sbrs	r24, 5
    3b78:	33 c4       	rjmp	.+2150   	; 0x43e0 <main+0x1d80>
							CRC^=EMZ.status[UART_adress-4];
    3b7a:	e0 91 e4 06 	lds	r30, 0x06E4	; 0x8006e4 <UART_adress>
    3b7e:	90 91 e1 06 	lds	r25, 0x06E1	; 0x8006e1 <CRC>
    3b82:	f0 e0       	ldi	r31, 0x00	; 0
    3b84:	e4 50       	subi	r30, 0x04	; 4
    3b86:	ff 4f       	sbci	r31, 0xFF	; 255
    3b88:	80 81       	ld	r24, Z
    3b8a:	89 27       	eor	r24, r25
    3b8c:	80 93 e1 06 	sts	0x06E1, r24	; 0x8006e1 <CRC>
							UDR0=EMZ.status[UART_adress-4];
    3b90:	e0 91 e4 06 	lds	r30, 0x06E4	; 0x8006e4 <UART_adress>
    3b94:	f0 e0       	ldi	r31, 0x00	; 0
    3b96:	e4 50       	subi	r30, 0x04	; 4
    3b98:	ff 4f       	sbci	r31, 0xFF	; 255
    3b9a:	80 81       	ld	r24, Z
    3b9c:	88 83       	st	Y, r24
							UART_byte++;
    3b9e:	80 91 e5 06 	lds	r24, 0x06E5	; 0x8006e5 <UART_byte>
    3ba2:	8f 5f       	subi	r24, 0xFF	; 255
    3ba4:	80 93 e5 06 	sts	0x06E5, r24	; 0x8006e5 <UART_byte>
    3ba8:	1b c4       	rjmp	.+2102   	; 0x43e0 <main+0x1d80>
						}
						break;
					case 63:
						if(UCSR0A & (1<<UDRE0)){
    3baa:	f8 01       	movw	r30, r16
    3bac:	80 81       	ld	r24, Z
    3bae:	85 ff       	sbrs	r24, 5
    3bb0:	17 c4       	rjmp	.+2094   	; 0x43e0 <main+0x1d80>
							CRC^=EMZ.cap[UART_adress-4];
    3bb2:	e0 91 e4 06 	lds	r30, 0x06E4	; 0x8006e4 <UART_adress>
    3bb6:	90 91 e1 06 	lds	r25, 0x06E1	; 0x8006e1 <CRC>
    3bba:	f0 e0       	ldi	r31, 0x00	; 0
    3bbc:	e4 56       	subi	r30, 0x64	; 100
    3bbe:	fe 4f       	sbci	r31, 0xFE	; 254
    3bc0:	80 81       	ld	r24, Z
    3bc2:	89 27       	eor	r24, r25
    3bc4:	80 93 e1 06 	sts	0x06E1, r24	; 0x8006e1 <CRC>
							UDR0=EMZ.cap[UART_adress-4];
    3bc8:	e0 91 e4 06 	lds	r30, 0x06E4	; 0x8006e4 <UART_adress>
    3bcc:	f0 e0       	ldi	r31, 0x00	; 0
    3bce:	e4 56       	subi	r30, 0x64	; 100
    3bd0:	fe 4f       	sbci	r31, 0xFE	; 254
    3bd2:	80 81       	ld	r24, Z
    3bd4:	88 83       	st	Y, r24
							UART_byte++;
    3bd6:	80 91 e5 06 	lds	r24, 0x06E5	; 0x8006e5 <UART_byte>
    3bda:	8f 5f       	subi	r24, 0xFF	; 255
    3bdc:	80 93 e5 06 	sts	0x06E5, r24	; 0x8006e5 <UART_byte>
    3be0:	ff c3       	rjmp	.+2046   	; 0x43e0 <main+0x1d80>
						}
						break;
					case 64:							//ЭМЗ-30/62
						if(UCSR0A & (1<<UDRE0)){
    3be2:	d8 01       	movw	r26, r16
    3be4:	8c 91       	ld	r24, X
    3be6:	85 ff       	sbrs	r24, 5
    3be8:	fb c3       	rjmp	.+2038   	; 0x43e0 <main+0x1d80>
							CRC^=EMZ.status[UART_adress-3];
    3bea:	e0 91 e4 06 	lds	r30, 0x06E4	; 0x8006e4 <UART_adress>
    3bee:	90 91 e1 06 	lds	r25, 0x06E1	; 0x8006e1 <CRC>
    3bf2:	f0 e0       	ldi	r31, 0x00	; 0
    3bf4:	e3 50       	subi	r30, 0x03	; 3
    3bf6:	ff 4f       	sbci	r31, 0xFF	; 255
    3bf8:	80 81       	ld	r24, Z
    3bfa:	89 27       	eor	r24, r25
    3bfc:	80 93 e1 06 	sts	0x06E1, r24	; 0x8006e1 <CRC>
							UDR0=EMZ.status[UART_adress-3];
    3c00:	e0 91 e4 06 	lds	r30, 0x06E4	; 0x8006e4 <UART_adress>
    3c04:	f0 e0       	ldi	r31, 0x00	; 0
    3c06:	e3 50       	subi	r30, 0x03	; 3
    3c08:	ff 4f       	sbci	r31, 0xFF	; 255
    3c0a:	80 81       	ld	r24, Z
    3c0c:	88 83       	st	Y, r24
							UART_byte++;
    3c0e:	80 91 e5 06 	lds	r24, 0x06E5	; 0x8006e5 <UART_byte>
    3c12:	8f 5f       	subi	r24, 0xFF	; 255
    3c14:	80 93 e5 06 	sts	0x06E5, r24	; 0x8006e5 <UART_byte>
    3c18:	e3 c3       	rjmp	.+1990   	; 0x43e0 <main+0x1d80>
						}
						break;
					case 65:
						if(UCSR0A & (1<<UDRE0)){
    3c1a:	f8 01       	movw	r30, r16
    3c1c:	80 81       	ld	r24, Z
    3c1e:	85 ff       	sbrs	r24, 5
    3c20:	df c3       	rjmp	.+1982   	; 0x43e0 <main+0x1d80>
							CRC^=EMZ.cap[UART_adress-3];
    3c22:	e0 91 e4 06 	lds	r30, 0x06E4	; 0x8006e4 <UART_adress>
    3c26:	90 91 e1 06 	lds	r25, 0x06E1	; 0x8006e1 <CRC>
    3c2a:	f0 e0       	ldi	r31, 0x00	; 0
    3c2c:	e3 56       	subi	r30, 0x63	; 99
    3c2e:	fe 4f       	sbci	r31, 0xFE	; 254
    3c30:	80 81       	ld	r24, Z
    3c32:	89 27       	eor	r24, r25
    3c34:	80 93 e1 06 	sts	0x06E1, r24	; 0x8006e1 <CRC>
							UDR0=EMZ.cap[UART_adress-3];
    3c38:	e0 91 e4 06 	lds	r30, 0x06E4	; 0x8006e4 <UART_adress>
    3c3c:	f0 e0       	ldi	r31, 0x00	; 0
    3c3e:	e3 56       	subi	r30, 0x63	; 99
    3c40:	fe 4f       	sbci	r31, 0xFE	; 254
    3c42:	80 81       	ld	r24, Z
    3c44:	88 83       	st	Y, r24
							UART_byte++;
    3c46:	80 91 e5 06 	lds	r24, 0x06E5	; 0x8006e5 <UART_byte>
    3c4a:	8f 5f       	subi	r24, 0xFF	; 255
    3c4c:	80 93 e5 06 	sts	0x06E5, r24	; 0x8006e5 <UART_byte>
    3c50:	c7 c3       	rjmp	.+1934   	; 0x43e0 <main+0x1d80>
						}
						break;
					case 66:							//ЭМЗ-31/63
						if(UCSR0A & (1<<UDRE0)){
    3c52:	d8 01       	movw	r26, r16
    3c54:	8c 91       	ld	r24, X
    3c56:	85 ff       	sbrs	r24, 5
    3c58:	c3 c3       	rjmp	.+1926   	; 0x43e0 <main+0x1d80>
							CRC^=EMZ.status[UART_adress-2];
    3c5a:	e0 91 e4 06 	lds	r30, 0x06E4	; 0x8006e4 <UART_adress>
    3c5e:	90 91 e1 06 	lds	r25, 0x06E1	; 0x8006e1 <CRC>
    3c62:	f0 e0       	ldi	r31, 0x00	; 0
    3c64:	e2 50       	subi	r30, 0x02	; 2
    3c66:	ff 4f       	sbci	r31, 0xFF	; 255
    3c68:	80 81       	ld	r24, Z
    3c6a:	89 27       	eor	r24, r25
    3c6c:	80 93 e1 06 	sts	0x06E1, r24	; 0x8006e1 <CRC>
							UDR0=EMZ.status[UART_adress-2];
    3c70:	e0 91 e4 06 	lds	r30, 0x06E4	; 0x8006e4 <UART_adress>
    3c74:	f0 e0       	ldi	r31, 0x00	; 0
    3c76:	e2 50       	subi	r30, 0x02	; 2
    3c78:	ff 4f       	sbci	r31, 0xFF	; 255
    3c7a:	80 81       	ld	r24, Z
    3c7c:	88 83       	st	Y, r24
							UART_byte++;
    3c7e:	80 91 e5 06 	lds	r24, 0x06E5	; 0x8006e5 <UART_byte>
    3c82:	8f 5f       	subi	r24, 0xFF	; 255
    3c84:	80 93 e5 06 	sts	0x06E5, r24	; 0x8006e5 <UART_byte>
    3c88:	ab c3       	rjmp	.+1878   	; 0x43e0 <main+0x1d80>
						}
						break;
					case 67:
						if(UCSR0A & (1<<UDRE0)){
    3c8a:	f8 01       	movw	r30, r16
    3c8c:	80 81       	ld	r24, Z
    3c8e:	85 ff       	sbrs	r24, 5
    3c90:	a7 c3       	rjmp	.+1870   	; 0x43e0 <main+0x1d80>
							CRC^=EMZ.cap[UART_adress-2];
    3c92:	e0 91 e4 06 	lds	r30, 0x06E4	; 0x8006e4 <UART_adress>
    3c96:	90 91 e1 06 	lds	r25, 0x06E1	; 0x8006e1 <CRC>
    3c9a:	f0 e0       	ldi	r31, 0x00	; 0
    3c9c:	e2 56       	subi	r30, 0x62	; 98
    3c9e:	fe 4f       	sbci	r31, 0xFE	; 254
    3ca0:	80 81       	ld	r24, Z
    3ca2:	89 27       	eor	r24, r25
    3ca4:	80 93 e1 06 	sts	0x06E1, r24	; 0x8006e1 <CRC>
							UDR0=EMZ.cap[UART_adress-2];
    3ca8:	e0 91 e4 06 	lds	r30, 0x06E4	; 0x8006e4 <UART_adress>
    3cac:	f0 e0       	ldi	r31, 0x00	; 0
    3cae:	e2 56       	subi	r30, 0x62	; 98
    3cb0:	fe 4f       	sbci	r31, 0xFE	; 254
    3cb2:	80 81       	ld	r24, Z
    3cb4:	88 83       	st	Y, r24
							UART_byte++;
    3cb6:	80 91 e5 06 	lds	r24, 0x06E5	; 0x8006e5 <UART_byte>
    3cba:	8f 5f       	subi	r24, 0xFF	; 255
    3cbc:	80 93 e5 06 	sts	0x06E5, r24	; 0x8006e5 <UART_byte>
    3cc0:	8f c3       	rjmp	.+1822   	; 0x43e0 <main+0x1d80>
						}
						break;
					case 68:						//ЭМЗ-32/64
						if(UCSR0A & (1<<UDRE0)){
    3cc2:	d8 01       	movw	r26, r16
    3cc4:	8c 91       	ld	r24, X
    3cc6:	85 ff       	sbrs	r24, 5
    3cc8:	8b c3       	rjmp	.+1814   	; 0x43e0 <main+0x1d80>
							CRC^=EMZ.status[UART_adress-1];
    3cca:	e0 91 e4 06 	lds	r30, 0x06E4	; 0x8006e4 <UART_adress>
    3cce:	90 91 e1 06 	lds	r25, 0x06E1	; 0x8006e1 <CRC>
    3cd2:	f0 e0       	ldi	r31, 0x00	; 0
    3cd4:	e1 50       	subi	r30, 0x01	; 1
    3cd6:	ff 4f       	sbci	r31, 0xFF	; 255
    3cd8:	80 81       	ld	r24, Z
    3cda:	89 27       	eor	r24, r25
    3cdc:	80 93 e1 06 	sts	0x06E1, r24	; 0x8006e1 <CRC>
							UDR0=EMZ.status[UART_adress-1];
    3ce0:	e0 91 e4 06 	lds	r30, 0x06E4	; 0x8006e4 <UART_adress>
    3ce4:	f0 e0       	ldi	r31, 0x00	; 0
    3ce6:	e1 50       	subi	r30, 0x01	; 1
    3ce8:	ff 4f       	sbci	r31, 0xFF	; 255
    3cea:	80 81       	ld	r24, Z
    3cec:	88 83       	st	Y, r24
							UART_byte++;
    3cee:	80 91 e5 06 	lds	r24, 0x06E5	; 0x8006e5 <UART_byte>
    3cf2:	8f 5f       	subi	r24, 0xFF	; 255
    3cf4:	80 93 e5 06 	sts	0x06E5, r24	; 0x8006e5 <UART_byte>
    3cf8:	73 c3       	rjmp	.+1766   	; 0x43e0 <main+0x1d80>
						}
						break;
					case 69:							
						if(UCSR0A & (1<<UDRE0)){
    3cfa:	f8 01       	movw	r30, r16
    3cfc:	80 81       	ld	r24, Z
    3cfe:	85 ff       	sbrs	r24, 5
    3d00:	6f c3       	rjmp	.+1758   	; 0x43e0 <main+0x1d80>
							CRC^=EMZ.cap[UART_adress-1];
    3d02:	e0 91 e4 06 	lds	r30, 0x06E4	; 0x8006e4 <UART_adress>
    3d06:	90 91 e1 06 	lds	r25, 0x06E1	; 0x8006e1 <CRC>
    3d0a:	f0 e0       	ldi	r31, 0x00	; 0
    3d0c:	e1 56       	subi	r30, 0x61	; 97
    3d0e:	fe 4f       	sbci	r31, 0xFE	; 254
    3d10:	80 81       	ld	r24, Z
    3d12:	89 27       	eor	r24, r25
    3d14:	80 93 e1 06 	sts	0x06E1, r24	; 0x8006e1 <CRC>
							UDR0=EMZ.cap[UART_adress-1];
    3d18:	e0 91 e4 06 	lds	r30, 0x06E4	; 0x8006e4 <UART_adress>
    3d1c:	f0 e0       	ldi	r31, 0x00	; 0
    3d1e:	e1 56       	subi	r30, 0x61	; 97
    3d20:	fe 4f       	sbci	r31, 0xFE	; 254
    3d22:	80 81       	ld	r24, Z
    3d24:	88 83       	st	Y, r24
							UART_byte++;
    3d26:	80 91 e5 06 	lds	r24, 0x06E5	; 0x8006e5 <UART_byte>
    3d2a:	8f 5f       	subi	r24, 0xFF	; 255
    3d2c:	80 93 e5 06 	sts	0x06E5, r24	; 0x8006e5 <UART_byte>
    3d30:	57 c3       	rjmp	.+1710   	; 0x43e0 <main+0x1d80>
						}
						break;
					case 70:						
						if(UCSR0A & (1<<UDRE0)){
    3d32:	d8 01       	movw	r26, r16
    3d34:	8c 91       	ld	r24, X
    3d36:	85 ff       	sbrs	r24, 5
    3d38:	53 c3       	rjmp	.+1702   	; 0x43e0 <main+0x1d80>
							if(UART_adress==32){
    3d3a:	80 91 e4 06 	lds	r24, 0x06E4	; 0x8006e4 <UART_adress>
    3d3e:	80 32       	cpi	r24, 0x20	; 32
    3d40:	b9 f4       	brne	.+46     	; 0x3d70 <main+0x1710>
								if(!sistem_mode){
    3d42:	80 91 69 02 	lds	r24, 0x0269	; 0x800269 <sistem_mode>
    3d46:	81 11       	cpse	r24, r1
    3d48:	08 c0       	rjmp	.+16     	; 0x3d5a <main+0x16fa>
									CRC^=DISCONNECT;
    3d4a:	80 91 e1 06 	lds	r24, 0x06E1	; 0x8006e1 <CRC>
    3d4e:	94 e4       	ldi	r25, 0x44	; 68
    3d50:	89 27       	eor	r24, r25
    3d52:	80 93 e1 06 	sts	0x06E1, r24	; 0x8006e1 <CRC>
									UDR0=DISCONNECT;
    3d56:	98 83       	st	Y, r25
    3d58:	18 c0       	rjmp	.+48     	; 0x3d8a <main+0x172a>
								}
								else{
									CRC^=DPNK_BLOCK;
    3d5a:	90 91 65 02 	lds	r25, 0x0265	; 0x800265 <DPNK_BLOCK>
    3d5e:	80 91 e1 06 	lds	r24, 0x06E1	; 0x8006e1 <CRC>
    3d62:	89 27       	eor	r24, r25
    3d64:	80 93 e1 06 	sts	0x06E1, r24	; 0x8006e1 <CRC>
									UDR0=DPNK_BLOCK;
    3d68:	80 91 65 02 	lds	r24, 0x0265	; 0x800265 <DPNK_BLOCK>
    3d6c:	88 83       	st	Y, r24
    3d6e:	0d c0       	rjmp	.+26     	; 0x3d8a <main+0x172a>
								}
							}
							else{
								CRC^=open_EMZ;
    3d70:	90 91 64 02 	lds	r25, 0x0264	; 0x800264 <open_EMZ>
    3d74:	80 91 e1 06 	lds	r24, 0x06E1	; 0x8006e1 <CRC>
    3d78:	89 27       	eor	r24, r25
    3d7a:	80 93 e1 06 	sts	0x06E1, r24	; 0x8006e1 <CRC>
								UDR0=open_EMZ;
    3d7e:	80 91 64 02 	lds	r24, 0x0264	; 0x800264 <open_EMZ>
    3d82:	88 83       	st	Y, r24
								open_EMZ=32;
    3d84:	80 e2       	ldi	r24, 0x20	; 32
    3d86:	80 93 64 02 	sts	0x0264, r24	; 0x800264 <open_EMZ>
							}
							UART_byte++;
    3d8a:	80 91 e5 06 	lds	r24, 0x06E5	; 0x8006e5 <UART_byte>
    3d8e:	8f 5f       	subi	r24, 0xFF	; 255
    3d90:	80 93 e5 06 	sts	0x06E5, r24	; 0x8006e5 <UART_byte>
    3d94:	25 c3       	rjmp	.+1610   	; 0x43e0 <main+0x1d80>
						}
						break;
					case 71:
						if(UCSR0A & (1<<UDRE0)){
    3d96:	f8 01       	movw	r30, r16
    3d98:	80 81       	ld	r24, Z
    3d9a:	85 ff       	sbrs	r24, 5
    3d9c:	21 c3       	rjmp	.+1602   	; 0x43e0 <main+0x1d80>
							CRC^=(alarm+0x30);
    3d9e:	90 91 d1 06 	lds	r25, 0x06D1	; 0x8006d1 <alarm>
    3da2:	80 91 e1 06 	lds	r24, 0x06E1	; 0x8006e1 <CRC>
    3da6:	90 5d       	subi	r25, 0xD0	; 208
    3da8:	89 27       	eor	r24, r25
    3daa:	80 93 e1 06 	sts	0x06E1, r24	; 0x8006e1 <CRC>
							UDR0=(alarm+0x30);
    3dae:	80 91 d1 06 	lds	r24, 0x06D1	; 0x8006d1 <alarm>
    3db2:	80 5d       	subi	r24, 0xD0	; 208
    3db4:	88 83       	st	Y, r24
							UART_byte++;
    3db6:	80 91 e5 06 	lds	r24, 0x06E5	; 0x8006e5 <UART_byte>
    3dba:	8f 5f       	subi	r24, 0xFF	; 255
    3dbc:	80 93 e5 06 	sts	0x06E5, r24	; 0x8006e5 <UART_byte>
    3dc0:	0f c3       	rjmp	.+1566   	; 0x43e0 <main+0x1d80>
						}
						break;
					case 72:
						if(UCSR0A & (1<<UDRE0)){
    3dc2:	d8 01       	movw	r26, r16
    3dc4:	8c 91       	ld	r24, X
    3dc6:	85 ff       	sbrs	r24, 5
    3dc8:	0b c3       	rjmp	.+1558   	; 0x43e0 <main+0x1d80>
							CRC^=(user_password[0]+0x30);
    3dca:	ec ed       	ldi	r30, 0xDC	; 220
    3dcc:	f6 e0       	ldi	r31, 0x06	; 6
    3dce:	90 81       	ld	r25, Z
    3dd0:	80 91 e1 06 	lds	r24, 0x06E1	; 0x8006e1 <CRC>
    3dd4:	90 5d       	subi	r25, 0xD0	; 208
    3dd6:	89 27       	eor	r24, r25
    3dd8:	80 93 e1 06 	sts	0x06E1, r24	; 0x8006e1 <CRC>
							UDR0=(user_password[0]+0x30);
    3ddc:	80 81       	ld	r24, Z
    3dde:	80 5d       	subi	r24, 0xD0	; 208
    3de0:	88 83       	st	Y, r24
							UART_byte++;
    3de2:	80 91 e5 06 	lds	r24, 0x06E5	; 0x8006e5 <UART_byte>
    3de6:	8f 5f       	subi	r24, 0xFF	; 255
    3de8:	80 93 e5 06 	sts	0x06E5, r24	; 0x8006e5 <UART_byte>
    3dec:	f9 c2       	rjmp	.+1522   	; 0x43e0 <main+0x1d80>
						}
						break;
					case 73:
						if(UCSR0A & (1<<UDRE0)){
    3dee:	f8 01       	movw	r30, r16
    3df0:	80 81       	ld	r24, Z
    3df2:	85 ff       	sbrs	r24, 5
    3df4:	f5 c2       	rjmp	.+1514   	; 0x43e0 <main+0x1d80>
							CRC^=(user_password[1]+0x30);
    3df6:	ec ed       	ldi	r30, 0xDC	; 220
    3df8:	f6 e0       	ldi	r31, 0x06	; 6
    3dfa:	91 81       	ldd	r25, Z+1	; 0x01
    3dfc:	80 91 e1 06 	lds	r24, 0x06E1	; 0x8006e1 <CRC>
    3e00:	90 5d       	subi	r25, 0xD0	; 208
    3e02:	89 27       	eor	r24, r25
    3e04:	80 93 e1 06 	sts	0x06E1, r24	; 0x8006e1 <CRC>
							UDR0=(user_password[1]+0x30);
    3e08:	81 81       	ldd	r24, Z+1	; 0x01
    3e0a:	80 5d       	subi	r24, 0xD0	; 208
    3e0c:	88 83       	st	Y, r24
							UART_byte++;
    3e0e:	80 91 e5 06 	lds	r24, 0x06E5	; 0x8006e5 <UART_byte>
    3e12:	8f 5f       	subi	r24, 0xFF	; 255
    3e14:	80 93 e5 06 	sts	0x06E5, r24	; 0x8006e5 <UART_byte>
    3e18:	e3 c2       	rjmp	.+1478   	; 0x43e0 <main+0x1d80>
						}
						break;
					case 74:
						if(UCSR0A & (1<<UDRE0)){
    3e1a:	d8 01       	movw	r26, r16
    3e1c:	8c 91       	ld	r24, X
    3e1e:	85 ff       	sbrs	r24, 5
    3e20:	df c2       	rjmp	.+1470   	; 0x43e0 <main+0x1d80>
							CRC^=(user_password[2]+0x30);
    3e22:	ec ed       	ldi	r30, 0xDC	; 220
    3e24:	f6 e0       	ldi	r31, 0x06	; 6
    3e26:	92 81       	ldd	r25, Z+2	; 0x02
    3e28:	80 91 e1 06 	lds	r24, 0x06E1	; 0x8006e1 <CRC>
    3e2c:	90 5d       	subi	r25, 0xD0	; 208
    3e2e:	89 27       	eor	r24, r25
    3e30:	80 93 e1 06 	sts	0x06E1, r24	; 0x8006e1 <CRC>
							UDR0=(user_password[2]+0x30);
    3e34:	82 81       	ldd	r24, Z+2	; 0x02
    3e36:	80 5d       	subi	r24, 0xD0	; 208
    3e38:	88 83       	st	Y, r24
							UART_byte++;
    3e3a:	80 91 e5 06 	lds	r24, 0x06E5	; 0x8006e5 <UART_byte>
    3e3e:	8f 5f       	subi	r24, 0xFF	; 255
    3e40:	80 93 e5 06 	sts	0x06E5, r24	; 0x8006e5 <UART_byte>
    3e44:	cd c2       	rjmp	.+1434   	; 0x43e0 <main+0x1d80>
						}
						break;
					case 75:
						if(UCSR0A & (1<<UDRE0)){
    3e46:	f8 01       	movw	r30, r16
    3e48:	80 81       	ld	r24, Z
    3e4a:	85 ff       	sbrs	r24, 5
    3e4c:	c9 c2       	rjmp	.+1426   	; 0x43e0 <main+0x1d80>
							CRC^=(user_password[3]+0x30);
    3e4e:	ec ed       	ldi	r30, 0xDC	; 220
    3e50:	f6 e0       	ldi	r31, 0x06	; 6
    3e52:	93 81       	ldd	r25, Z+3	; 0x03
    3e54:	80 91 e1 06 	lds	r24, 0x06E1	; 0x8006e1 <CRC>
    3e58:	90 5d       	subi	r25, 0xD0	; 208
    3e5a:	89 27       	eor	r24, r25
    3e5c:	80 93 e1 06 	sts	0x06E1, r24	; 0x8006e1 <CRC>
							UDR0=(user_password[3]+0x30);
    3e60:	83 81       	ldd	r24, Z+3	; 0x03
    3e62:	80 5d       	subi	r24, 0xD0	; 208
    3e64:	88 83       	st	Y, r24
							UART_byte=77;
    3e66:	8d e4       	ldi	r24, 0x4D	; 77
    3e68:	80 93 e5 06 	sts	0x06E5, r24	; 0x8006e5 <UART_byte>
    3e6c:	b9 c2       	rjmp	.+1394   	; 0x43e0 <main+0x1d80>
						}
						break;
					case 77:
						if(UCSR0A & (1<<UDRE0)){
    3e6e:	d8 01       	movw	r26, r16
    3e70:	8c 91       	ld	r24, X
    3e72:	85 ff       	sbrs	r24, 5
    3e74:	b5 c2       	rjmp	.+1386   	; 0x43e0 <main+0x1d80>
							UDR0=CRC;
    3e76:	80 91 e1 06 	lds	r24, 0x06E1	; 0x8006e1 <CRC>
    3e7a:	88 83       	st	Y, r24
							UART_byte++;
    3e7c:	80 91 e5 06 	lds	r24, 0x06E5	; 0x8006e5 <UART_byte>
    3e80:	8f 5f       	subi	r24, 0xFF	; 255
    3e82:	80 93 e5 06 	sts	0x06E5, r24	; 0x8006e5 <UART_byte>
    3e86:	ac c2       	rjmp	.+1368   	; 0x43e0 <main+0x1d80>
						}
						break;
					case 78:						//посылка СТОП 0x0D
						if(UCSR0A & (1<<UDRE0)){
    3e88:	f8 01       	movw	r30, r16
    3e8a:	80 81       	ld	r24, Z
    3e8c:	85 ff       	sbrs	r24, 5
    3e8e:	a8 c2       	rjmp	.+1360   	; 0x43e0 <main+0x1d80>
							UDR0=0x0D;
    3e90:	8d e0       	ldi	r24, 0x0D	; 13
    3e92:	88 83       	st	Y, r24
							UART_byte++;
    3e94:	80 91 e5 06 	lds	r24, 0x06E5	; 0x8006e5 <UART_byte>
    3e98:	8f 5f       	subi	r24, 0xFF	; 255
    3e9a:	80 93 e5 06 	sts	0x06E5, r24	; 0x8006e5 <UART_byte>
    3e9e:	a0 c2       	rjmp	.+1344   	; 0x43e0 <main+0x1d80>
						}
						break;
					case 79:						//посылка СТОП 0x0D
						if(UCSR0A & (1<<UDRE0)){
    3ea0:	d8 01       	movw	r26, r16
    3ea2:	8c 91       	ld	r24, X
    3ea4:	85 ff       	sbrs	r24, 5
    3ea6:	9c c2       	rjmp	.+1336   	; 0x43e0 <main+0x1d80>
							UDR0=0x0A;
    3ea8:	8a e0       	ldi	r24, 0x0A	; 10
    3eaa:	88 83       	st	Y, r24
							UART_byte++;
    3eac:	80 91 e5 06 	lds	r24, 0x06E5	; 0x8006e5 <UART_byte>
    3eb0:	8f 5f       	subi	r24, 0xFF	; 255
    3eb2:	80 93 e5 06 	sts	0x06E5, r24	; 0x8006e5 <UART_byte>
    3eb6:	94 c2       	rjmp	.+1320   	; 0x43e0 <main+0x1d80>
						}
						break;
					case 80:
						if(UCSR0A & (1<<UDRE0)){
    3eb8:	f8 01       	movw	r30, r16
    3eba:	80 81       	ld	r24, Z
    3ebc:	85 ff       	sbrs	r24, 5
    3ebe:	90 c2       	rjmp	.+1312   	; 0x43e0 <main+0x1d80>
							UDR0=0x00;
    3ec0:	18 82       	st	Y, r1
							UART_byte++;
    3ec2:	80 91 e5 06 	lds	r24, 0x06E5	; 0x8006e5 <UART_byte>
    3ec6:	8f 5f       	subi	r24, 0xFF	; 255
    3ec8:	80 93 e5 06 	sts	0x06E5, r24	; 0x8006e5 <UART_byte>
    3ecc:	89 c2       	rjmp	.+1298   	; 0x43e0 <main+0x1d80>
						}
						break;
					case 81:
						if(UCSR0A & (1<<UDRE0)){
    3ece:	d8 01       	movw	r26, r16
    3ed0:	8c 91       	ld	r24, X
    3ed2:	85 ff       	sbrs	r24, 5
    3ed4:	85 c2       	rjmp	.+1290   	; 0x43e0 <main+0x1d80>
							RS485_OFF;
    3ed6:	5a 98       	cbi	0x0b, 2	; 11
							UCSR0B |= (1<<RXCIE0);
    3ed8:	e1 ec       	ldi	r30, 0xC1	; 193
    3eda:	f0 e0       	ldi	r31, 0x00	; 0
    3edc:	80 81       	ld	r24, Z
    3ede:	80 68       	ori	r24, 0x80	; 128
    3ee0:	80 83       	st	Z, r24

								timer=6;			//время ожидания ответа
    3ee2:	86 e0       	ldi	r24, 0x06	; 6
    3ee4:	80 93 ec 06 	sts	0x06EC, r24	; 0x8006ec <timer>
								TIMSK2 = ON;
    3ee8:	50 92 70 00 	sts	0x0070, r5	; 0x800070 <__TEXT_REGION_LENGTH__+0x7e0070>
								UART_byte++;
    3eec:	80 91 e5 06 	lds	r24, 0x06E5	; 0x8006e5 <UART_byte>
    3ef0:	8f 5f       	subi	r24, 0xFF	; 255
    3ef2:	80 93 e5 06 	sts	0x06E5, r24	; 0x8006e5 <UART_byte>
    3ef6:	74 c2       	rjmp	.+1256   	; 0x43e0 <main+0x1d80>
						}
						break;
					case 82:
						if(timer){
    3ef8:	80 91 ec 06 	lds	r24, 0x06EC	; 0x8006ec <timer>
    3efc:	88 23       	and	r24, r24
    3efe:	09 f4       	brne	.+2      	; 0x3f02 <main+0x18a2>
    3f00:	8b c1       	rjmp	.+790    	; 0x4218 <main+0x1bb8>
			//ответ от ЭМЗ
							if(((package[8]<<4)|package[9])==STOP_BYTE){
    3f02:	d5 01       	movw	r26, r10
    3f04:	18 96       	adiw	r26, 0x08	; 8
    3f06:	8c 91       	ld	r24, X
    3f08:	18 97       	sbiw	r26, 0x08	; 8
    3f0a:	19 96       	adiw	r26, 0x09	; 9
    3f0c:	2c 91       	ld	r18, X
    3f0e:	b0 e1       	ldi	r27, 0x10	; 16
    3f10:	8b 9f       	mul	r24, r27
    3f12:	c0 01       	movw	r24, r0
    3f14:	11 24       	eor	r1, r1
    3f16:	82 2b       	or	r24, r18
    3f18:	8a 3d       	cpi	r24, 0xDA	; 218
    3f1a:	91 05       	cpc	r25, r1
    3f1c:	09 f0       	breq	.+2      	; 0x3f20 <main+0x18c0>
    3f1e:	e8 c0       	rjmp	.+464    	; 0x40f0 <main+0x1a90>
								CRC_IN=0x07;
    3f20:	87 e0       	ldi	r24, 0x07	; 7
    3f22:	80 93 d4 06 	sts	0x06D4, r24	; 0x8006d4 <CRC_IN>
    3f26:	81 e0       	ldi	r24, 0x01	; 1
    3f28:	90 e0       	ldi	r25, 0x00	; 0
								for(uint8_t i=1;i<7;i++){
									CRC_IN^=package[i];
    3f2a:	fc 01       	movw	r30, r24
    3f2c:	ee 50       	subi	r30, 0x0E	; 14
    3f2e:	f9 4f       	sbci	r31, 0xF9	; 249
    3f30:	30 81       	ld	r19, Z
    3f32:	20 91 d4 06 	lds	r18, 0x06D4	; 0x8006d4 <CRC_IN>
    3f36:	23 27       	eor	r18, r19
    3f38:	20 93 d4 06 	sts	0x06D4, r18	; 0x8006d4 <CRC_IN>
    3f3c:	01 96       	adiw	r24, 0x01	; 1
					case 82:
						if(timer){
			//ответ от ЭМЗ
							if(((package[8]<<4)|package[9])==STOP_BYTE){
								CRC_IN=0x07;
								for(uint8_t i=1;i<7;i++){
    3f3e:	87 30       	cpi	r24, 0x07	; 7
    3f40:	91 05       	cpc	r25, r1
    3f42:	99 f7       	brne	.-26     	; 0x3f2a <main+0x18ca>
									CRC_IN^=package[i];
								}
								if(CRC_IN==package[7]){
    3f44:	f5 01       	movw	r30, r10
    3f46:	97 81       	ldd	r25, Z+7	; 0x07
    3f48:	80 91 d4 06 	lds	r24, 0x06D4	; 0x8006d4 <CRC_IN>
    3f4c:	98 13       	cpse	r25, r24
    3f4e:	d0 c0       	rjmp	.+416    	; 0x40f0 <main+0x1a90>
									if(((package[1]-0x30)*10)+(package[2]-0x30)==UART_adress){
    3f50:	81 81       	ldd	r24, Z+1	; 0x01
    3f52:	22 81       	ldd	r18, Z+2	; 0x02
    3f54:	40 91 e4 06 	lds	r20, 0x06E4	; 0x8006e4 <UART_adress>
    3f58:	90 e0       	ldi	r25, 0x00	; 0
    3f5a:	c0 97       	sbiw	r24, 0x30	; 48
    3f5c:	bc 01       	movw	r22, r24
    3f5e:	66 0f       	add	r22, r22
    3f60:	77 1f       	adc	r23, r23
    3f62:	88 0f       	add	r24, r24
    3f64:	99 1f       	adc	r25, r25
    3f66:	88 0f       	add	r24, r24
    3f68:	99 1f       	adc	r25, r25
    3f6a:	88 0f       	add	r24, r24
    3f6c:	99 1f       	adc	r25, r25
    3f6e:	86 0f       	add	r24, r22
    3f70:	97 1f       	adc	r25, r23
    3f72:	30 e0       	ldi	r19, 0x00	; 0
    3f74:	20 53       	subi	r18, 0x30	; 48
    3f76:	31 09       	sbc	r19, r1
    3f78:	82 0f       	add	r24, r18
    3f7a:	93 1f       	adc	r25, r19
    3f7c:	50 e0       	ldi	r21, 0x00	; 0
    3f7e:	84 17       	cp	r24, r20
    3f80:	95 07       	cpc	r25, r21
    3f82:	09 f0       	breq	.+2      	; 0x3f86 <main+0x1926>
    3f84:	b5 c0       	rjmp	.+362    	; 0x40f0 <main+0x1a90>
										
										EMZ_map=EMZ.adress[UART_adress*2];
    3f86:	e0 91 e4 06 	lds	r30, 0x06E4	; 0x8006e4 <UART_adress>
    3f8a:	f0 e0       	ldi	r31, 0x00	; 0
    3f8c:	ee 0f       	add	r30, r30
    3f8e:	ff 1f       	adc	r31, r31
    3f90:	e0 52       	subi	r30, 0x20	; 32
    3f92:	fe 4f       	sbci	r31, 0xFE	; 254
    3f94:	80 81       	ld	r24, Z
    3f96:	80 93 ce 06 	sts	0x06CE, r24	; 0x8006ce <EMZ_map>
										if(EMZ.status[EMZ_map]!=DISCONNECT){
    3f9a:	e0 91 ce 06 	lds	r30, 0x06CE	; 0x8006ce <EMZ_map>
    3f9e:	f0 e0       	ldi	r31, 0x00	; 0
    3fa0:	e0 50       	subi	r30, 0x00	; 0
    3fa2:	ff 4f       	sbci	r31, 0xFF	; 255
    3fa4:	80 81       	ld	r24, Z
    3fa6:	84 34       	cpi	r24, 0x44	; 68
    3fa8:	09 f4       	brne	.+2      	; 0x3fac <main+0x194c>
    3faa:	3f c0       	rjmp	.+126    	; 0x402a <main+0x19ca>
											if(EMZ.status[EMZ_map]==BLOCK){
    3fac:	e0 91 ce 06 	lds	r30, 0x06CE	; 0x8006ce <EMZ_map>
    3fb0:	f0 e0       	ldi	r31, 0x00	; 0
    3fb2:	e0 50       	subi	r30, 0x00	; 0
    3fb4:	ff 4f       	sbci	r31, 0xFF	; 255
    3fb6:	80 81       	ld	r24, Z
    3fb8:	82 34       	cpi	r24, 0x42	; 66
    3fba:	b1 f4       	brne	.+44     	; 0x3fe8 <main+0x1988>
												if(EMZ.status[EMZ_map]!=package[3]){
    3fbc:	e0 91 ce 06 	lds	r30, 0x06CE	; 0x8006ce <EMZ_map>
    3fc0:	d5 01       	movw	r26, r10
    3fc2:	13 96       	adiw	r26, 0x03	; 3
    3fc4:	8c 91       	ld	r24, X
    3fc6:	f0 e0       	ldi	r31, 0x00	; 0
    3fc8:	e0 50       	subi	r30, 0x00	; 0
    3fca:	ff 4f       	sbci	r31, 0xFF	; 255
    3fcc:	90 81       	ld	r25, Z
    3fce:	98 17       	cp	r25, r24
    3fd0:	59 f0       	breq	.+22     	; 0x3fe8 <main+0x1988>
													if(alarm_time){
    3fd2:	80 91 d2 06 	lds	r24, 0x06D2	; 0x8006d2 <alarm_time>
    3fd6:	88 23       	and	r24, r24
    3fd8:	39 f0       	breq	.+14     	; 0x3fe8 <main+0x1988>
														alarm=ON;
    3fda:	40 92 d1 06 	sts	0x06D1, r4	; 0x8006d1 <alarm>
														alarm_timer_off=alarm_time;
    3fde:	80 91 d2 06 	lds	r24, 0x06D2	; 0x8006d2 <alarm_time>
    3fe2:	80 93 d0 06 	sts	0x06D0, r24	; 0x8006d0 <alarm_timer_off>
														PORTD|=(1<<PORTD4);
    3fe6:	5c 9a       	sbi	0x0b, 4	; 11
													}
												}
											}
											EMZ.status[EMZ_map]=package[3];
    3fe8:	e0 91 ce 06 	lds	r30, 0x06CE	; 0x8006ce <EMZ_map>
    3fec:	d5 01       	movw	r26, r10
    3fee:	13 96       	adiw	r26, 0x03	; 3
    3ff0:	8c 91       	ld	r24, X
    3ff2:	13 97       	sbiw	r26, 0x03	; 3
    3ff4:	f0 e0       	ldi	r31, 0x00	; 0
    3ff6:	e0 50       	subi	r30, 0x00	; 0
    3ff8:	ff 4f       	sbci	r31, 0xFF	; 255
    3ffa:	80 83       	st	Z, r24
											if(package[3]==OPEN)DPNK_BLOCK=BLOCK;
    3ffc:	13 96       	adiw	r26, 0x03	; 3
    3ffe:	8c 91       	ld	r24, X
    4000:	8f 34       	cpi	r24, 0x4F	; 79
    4002:	19 f4       	brne	.+6      	; 0x400a <main+0x19aa>
    4004:	82 e4       	ldi	r24, 0x42	; 66
    4006:	80 93 65 02 	sts	0x0265, r24	; 0x800265 <DPNK_BLOCK>
											EMZ.cap[EMZ_map]=package[5];
    400a:	e0 91 ce 06 	lds	r30, 0x06CE	; 0x8006ce <EMZ_map>
    400e:	d5 01       	movw	r26, r10
    4010:	15 96       	adiw	r26, 0x05	; 5
    4012:	8c 91       	ld	r24, X
    4014:	f0 e0       	ldi	r31, 0x00	; 0
    4016:	e0 56       	subi	r30, 0x60	; 96
    4018:	fe 4f       	sbci	r31, 0xFE	; 254
    401a:	80 83       	st	Z, r24
											EMZ.out[EMZ_map]=BLOCK;
    401c:	e0 91 ce 06 	lds	r30, 0x06CE	; 0x8006ce <EMZ_map>
    4020:	f0 e0       	ldi	r31, 0x00	; 0
    4022:	e0 5c       	subi	r30, 0xC0	; 192
    4024:	fe 4f       	sbci	r31, 0xFE	; 254
    4026:	82 e4       	ldi	r24, 0x42	; 66
    4028:	80 83       	st	Z, r24
										}
										
										EMZ_map=EMZ.adress[UART_adress*2+1];
    402a:	e0 91 e4 06 	lds	r30, 0x06E4	; 0x8006e4 <UART_adress>
    402e:	f0 e0       	ldi	r31, 0x00	; 0
    4030:	ee 0f       	add	r30, r30
    4032:	ff 1f       	adc	r31, r31
    4034:	ef 51       	subi	r30, 0x1F	; 31
    4036:	fe 4f       	sbci	r31, 0xFE	; 254
    4038:	80 81       	ld	r24, Z
    403a:	80 93 ce 06 	sts	0x06CE, r24	; 0x8006ce <EMZ_map>
										if(EMZ.status[EMZ_map]!=DISCONNECT){
    403e:	e0 91 ce 06 	lds	r30, 0x06CE	; 0x8006ce <EMZ_map>
    4042:	f0 e0       	ldi	r31, 0x00	; 0
    4044:	e0 50       	subi	r30, 0x00	; 0
    4046:	ff 4f       	sbci	r31, 0xFF	; 255
    4048:	80 81       	ld	r24, Z
    404a:	84 34       	cpi	r24, 0x44	; 68
    404c:	09 f4       	brne	.+2      	; 0x4050 <main+0x19f0>
    404e:	3f c0       	rjmp	.+126    	; 0x40ce <main+0x1a6e>
											if(EMZ.status[EMZ_map]==BLOCK){
    4050:	e0 91 ce 06 	lds	r30, 0x06CE	; 0x8006ce <EMZ_map>
    4054:	f0 e0       	ldi	r31, 0x00	; 0
    4056:	e0 50       	subi	r30, 0x00	; 0
    4058:	ff 4f       	sbci	r31, 0xFF	; 255
    405a:	80 81       	ld	r24, Z
    405c:	82 34       	cpi	r24, 0x42	; 66
    405e:	b1 f4       	brne	.+44     	; 0x408c <main+0x1a2c>
												if(EMZ.status[EMZ_map]!=package[4]){
    4060:	e0 91 ce 06 	lds	r30, 0x06CE	; 0x8006ce <EMZ_map>
    4064:	d5 01       	movw	r26, r10
    4066:	14 96       	adiw	r26, 0x04	; 4
    4068:	8c 91       	ld	r24, X
    406a:	f0 e0       	ldi	r31, 0x00	; 0
    406c:	e0 50       	subi	r30, 0x00	; 0
    406e:	ff 4f       	sbci	r31, 0xFF	; 255
    4070:	90 81       	ld	r25, Z
    4072:	98 17       	cp	r25, r24
    4074:	59 f0       	breq	.+22     	; 0x408c <main+0x1a2c>
													if(alarm_time){
    4076:	80 91 d2 06 	lds	r24, 0x06D2	; 0x8006d2 <alarm_time>
    407a:	88 23       	and	r24, r24
    407c:	39 f0       	breq	.+14     	; 0x408c <main+0x1a2c>
														alarm=ON;
    407e:	40 92 d1 06 	sts	0x06D1, r4	; 0x8006d1 <alarm>
														alarm_timer_off=alarm_time;
    4082:	80 91 d2 06 	lds	r24, 0x06D2	; 0x8006d2 <alarm_time>
    4086:	80 93 d0 06 	sts	0x06D0, r24	; 0x8006d0 <alarm_timer_off>
														PORTD|=(1<<PORTD4);
    408a:	5c 9a       	sbi	0x0b, 4	; 11
													}
												}
											}
											EMZ.status[EMZ_map]=package[4];
    408c:	e0 91 ce 06 	lds	r30, 0x06CE	; 0x8006ce <EMZ_map>
    4090:	d5 01       	movw	r26, r10
    4092:	14 96       	adiw	r26, 0x04	; 4
    4094:	8c 91       	ld	r24, X
    4096:	14 97       	sbiw	r26, 0x04	; 4
    4098:	f0 e0       	ldi	r31, 0x00	; 0
    409a:	e0 50       	subi	r30, 0x00	; 0
    409c:	ff 4f       	sbci	r31, 0xFF	; 255
    409e:	80 83       	st	Z, r24
											if(package[4]==OPEN)DPNK_BLOCK=BLOCK;
    40a0:	14 96       	adiw	r26, 0x04	; 4
    40a2:	8c 91       	ld	r24, X
    40a4:	8f 34       	cpi	r24, 0x4F	; 79
    40a6:	19 f4       	brne	.+6      	; 0x40ae <main+0x1a4e>
    40a8:	82 e4       	ldi	r24, 0x42	; 66
    40aa:	80 93 65 02 	sts	0x0265, r24	; 0x800265 <DPNK_BLOCK>
											EMZ.cap[EMZ_map]=package[6];
    40ae:	e0 91 ce 06 	lds	r30, 0x06CE	; 0x8006ce <EMZ_map>
    40b2:	d5 01       	movw	r26, r10
    40b4:	16 96       	adiw	r26, 0x06	; 6
    40b6:	8c 91       	ld	r24, X
    40b8:	f0 e0       	ldi	r31, 0x00	; 0
    40ba:	e0 56       	subi	r30, 0x60	; 96
    40bc:	fe 4f       	sbci	r31, 0xFE	; 254
    40be:	80 83       	st	Z, r24
											EMZ.out[EMZ_map]=BLOCK;
    40c0:	e0 91 ce 06 	lds	r30, 0x06CE	; 0x8006ce <EMZ_map>
    40c4:	f0 e0       	ldi	r31, 0x00	; 0
    40c6:	e0 5c       	subi	r30, 0xC0	; 192
    40c8:	fe 4f       	sbci	r31, 0xFE	; 254
    40ca:	82 e4       	ldi	r24, 0x42	; 66
    40cc:	80 83       	st	Z, r24
										}
										
										EMZ.error[UART_adress]=0;
    40ce:	e0 91 e4 06 	lds	r30, 0x06E4	; 0x8006e4 <UART_adress>
    40d2:	f0 e0       	ldi	r31, 0x00	; 0
    40d4:	e0 58       	subi	r30, 0x80	; 128
    40d6:	fe 4f       	sbci	r31, 0xFE	; 254
    40d8:	10 82       	st	Z, r1
										package[1]=0;
    40da:	f5 01       	movw	r30, r10
    40dc:	11 82       	std	Z+1, r1	; 0x01
										package[2]=0;
    40de:	12 82       	std	Z+2, r1	; 0x02
										package[8]=0;
    40e0:	10 86       	std	Z+8, r1	; 0x08
										package[9]=0;
    40e2:	11 86       	std	Z+9, r1	; 0x09
										TIMSK2=OFF;
    40e4:	10 92 70 00 	sts	0x0070, r1	; 0x800070 <__TEXT_REGION_LENGTH__+0x7e0070>
										UART_byte=0;
    40e8:	10 92 e5 06 	sts	0x06E5, r1	; 0x8006e5 <UART_byte>
										transmit=0;
    40ec:	10 92 e6 06 	sts	0x06E6, r1	; 0x8006e6 <transmit>
									}
								}
							}
				//ответ от ДПНК
							if(((package[7]<<4)|package[8])==STOP_BYTE){
    40f0:	d5 01       	movw	r26, r10
    40f2:	17 96       	adiw	r26, 0x07	; 7
    40f4:	8c 91       	ld	r24, X
    40f6:	17 97       	sbiw	r26, 0x07	; 7
    40f8:	18 96       	adiw	r26, 0x08	; 8
    40fa:	2c 91       	ld	r18, X
    40fc:	b0 e1       	ldi	r27, 0x10	; 16
    40fe:	8b 9f       	mul	r24, r27
    4100:	c0 01       	movw	r24, r0
    4102:	11 24       	eor	r1, r1
    4104:	82 2b       	or	r24, r18
    4106:	8a 3d       	cpi	r24, 0xDA	; 218
    4108:	91 05       	cpc	r25, r1
    410a:	09 f0       	breq	.+2      	; 0x410e <main+0x1aae>
    410c:	69 c1       	rjmp	.+722    	; 0x43e0 <main+0x1d80>
								CRC_IN=0x07;
    410e:	87 e0       	ldi	r24, 0x07	; 7
    4110:	80 93 d4 06 	sts	0x06D4, r24	; 0x8006d4 <CRC_IN>
    4114:	81 e0       	ldi	r24, 0x01	; 1
    4116:	90 e0       	ldi	r25, 0x00	; 0
								for(uint8_t i=1;i<6;i++){
									CRC_IN^=package[i];
    4118:	fc 01       	movw	r30, r24
    411a:	ee 50       	subi	r30, 0x0E	; 14
    411c:	f9 4f       	sbci	r31, 0xF9	; 249
    411e:	30 81       	ld	r19, Z
    4120:	20 91 d4 06 	lds	r18, 0x06D4	; 0x8006d4 <CRC_IN>
    4124:	23 27       	eor	r18, r19
    4126:	20 93 d4 06 	sts	0x06D4, r18	; 0x8006d4 <CRC_IN>
    412a:	01 96       	adiw	r24, 0x01	; 1
								}
							}
				//ответ от ДПНК
							if(((package[7]<<4)|package[8])==STOP_BYTE){
								CRC_IN=0x07;
								for(uint8_t i=1;i<6;i++){
    412c:	86 30       	cpi	r24, 0x06	; 6
    412e:	91 05       	cpc	r25, r1
    4130:	99 f7       	brne	.-26     	; 0x4118 <main+0x1ab8>
									CRC_IN^=package[i];
								}
								if(CRC_IN==package[6]){
    4132:	f5 01       	movw	r30, r10
    4134:	96 81       	ldd	r25, Z+6	; 0x06
    4136:	80 91 d4 06 	lds	r24, 0x06D4	; 0x8006d4 <CRC_IN>
    413a:	98 13       	cpse	r25, r24
    413c:	51 c1       	rjmp	.+674    	; 0x43e0 <main+0x1d80>
									if(((package[1]-0x30)*10)+(package[2]-0x30)==32){
    413e:	81 81       	ldd	r24, Z+1	; 0x01
    4140:	42 81       	ldd	r20, Z+2	; 0x02
    4142:	90 e0       	ldi	r25, 0x00	; 0
    4144:	c0 97       	sbiw	r24, 0x30	; 48
    4146:	9c 01       	movw	r18, r24
    4148:	22 0f       	add	r18, r18
    414a:	33 1f       	adc	r19, r19
    414c:	88 0f       	add	r24, r24
    414e:	99 1f       	adc	r25, r25
    4150:	88 0f       	add	r24, r24
    4152:	99 1f       	adc	r25, r25
    4154:	88 0f       	add	r24, r24
    4156:	99 1f       	adc	r25, r25
    4158:	82 0f       	add	r24, r18
    415a:	93 1f       	adc	r25, r19
    415c:	84 0f       	add	r24, r20
    415e:	91 1d       	adc	r25, r1
    4160:	80 35       	cpi	r24, 0x50	; 80
    4162:	91 05       	cpc	r25, r1
    4164:	c9 f5       	brne	.+114    	; 0x41d8 <main+0x1b78>
										if(sistem_mode)sistem_mode=package[3]-0x30;
    4166:	80 91 69 02 	lds	r24, 0x0269	; 0x800269 <sistem_mode>
    416a:	88 23       	and	r24, r24
    416c:	21 f0       	breq	.+8      	; 0x4176 <main+0x1b16>
    416e:	83 81       	ldd	r24, Z+3	; 0x03
    4170:	80 53       	subi	r24, 0x30	; 48
    4172:	80 93 69 02 	sts	0x0269, r24	; 0x800269 <sistem_mode>
										open_EMZ=(package[4]-0x30)*10+(package[5]-0x30);
    4176:	d5 01       	movw	r26, r10
    4178:	14 96       	adiw	r26, 0x04	; 4
    417a:	8c 91       	ld	r24, X
    417c:	14 97       	sbiw	r26, 0x04	; 4
    417e:	15 96       	adiw	r26, 0x05	; 5
    4180:	9c 91       	ld	r25, X
    4182:	88 0f       	add	r24, r24
    4184:	80 56       	subi	r24, 0x60	; 96
    4186:	28 2f       	mov	r18, r24
    4188:	22 0f       	add	r18, r18
    418a:	22 0f       	add	r18, r18
    418c:	82 0f       	add	r24, r18
    418e:	90 53       	subi	r25, 0x30	; 48
    4190:	89 0f       	add	r24, r25
    4192:	80 93 64 02 	sts	0x0264, r24	; 0x800264 <open_EMZ>
										if(open_EMZ<32){
    4196:	80 91 64 02 	lds	r24, 0x0264	; 0x800264 <open_EMZ>
    419a:	80 32       	cpi	r24, 0x20	; 32
    419c:	38 f4       	brcc	.+14     	; 0x41ac <main+0x1b4c>
											EMZ.out[open_EMZ]=OPEN;
    419e:	e0 91 64 02 	lds	r30, 0x0264	; 0x800264 <open_EMZ>
    41a2:	f0 e0       	ldi	r31, 0x00	; 0
    41a4:	e0 5c       	subi	r30, 0xC0	; 192
    41a6:	fe 4f       	sbci	r31, 0xFE	; 254
    41a8:	8f e4       	ldi	r24, 0x4F	; 79
    41aa:	80 83       	st	Z, r24
											//open_EMZ=32;
										}
										if(page==5){
    41ac:	80 91 e9 06 	lds	r24, 0x06E9	; 0x8006e9 <page>
    41b0:	85 30       	cpi	r24, 0x05	; 5
    41b2:	21 f4       	brne	.+8      	; 0x41bc <main+0x1b5c>
											page=0;
    41b4:	10 92 e9 06 	sts	0x06E9, r1	; 0x8006e9 <page>
											update=1;
    41b8:	40 92 e8 06 	sts	0x06E8, r4	; 0x8006e8 <update>
										}
										DPNK_ERROR=0;
    41bc:	10 92 e0 06 	sts	0x06E0, r1	; 0x8006e0 <DPNK_ERROR>
										package[1]=0;
    41c0:	f5 01       	movw	r30, r10
    41c2:	11 82       	std	Z+1, r1	; 0x01
										package[2]=0;
    41c4:	12 82       	std	Z+2, r1	; 0x02
										package[7]=0;
    41c6:	17 82       	std	Z+7, r1	; 0x07
										package[8]=0;
    41c8:	10 86       	std	Z+8, r1	; 0x08
										TIMSK2=OFF;
    41ca:	10 92 70 00 	sts	0x0070, r1	; 0x800070 <__TEXT_REGION_LENGTH__+0x7e0070>
										UART_byte=0;
    41ce:	10 92 e5 06 	sts	0x06E5, r1	; 0x8006e5 <UART_byte>
										transmit=0;
    41d2:	10 92 e6 06 	sts	0x06E6, r1	; 0x8006e6 <transmit>
    41d6:	04 c1       	rjmp	.+520    	; 0x43e0 <main+0x1d80>
									}
									else{
										if(((package[1]-0x30)*10)+(package[2]-0x30)==64){
    41d8:	81 81       	ldd	r24, Z+1	; 0x01
    41da:	42 81       	ldd	r20, Z+2	; 0x02
    41dc:	90 e0       	ldi	r25, 0x00	; 0
    41de:	c0 97       	sbiw	r24, 0x30	; 48
    41e0:	9c 01       	movw	r18, r24
    41e2:	22 0f       	add	r18, r18
    41e4:	33 1f       	adc	r19, r19
    41e6:	88 0f       	add	r24, r24
    41e8:	99 1f       	adc	r25, r25
    41ea:	88 0f       	add	r24, r24
    41ec:	99 1f       	adc	r25, r25
    41ee:	88 0f       	add	r24, r24
    41f0:	99 1f       	adc	r25, r25
    41f2:	82 0f       	add	r24, r18
    41f4:	93 1f       	adc	r25, r19
    41f6:	84 0f       	add	r24, r20
    41f8:	91 1d       	adc	r25, r1
    41fa:	80 37       	cpi	r24, 0x70	; 112
    41fc:	91 05       	cpc	r25, r1
    41fe:	09 f0       	breq	.+2      	; 0x4202 <main+0x1ba2>
    4200:	ef c0       	rjmp	.+478    	; 0x43e0 <main+0x1d80>
											package[1]=0;
    4202:	11 82       	std	Z+1, r1	; 0x01
											package[2]=0;
    4204:	12 82       	std	Z+2, r1	; 0x02
											package[7]=0;
    4206:	17 82       	std	Z+7, r1	; 0x07
											package[8]=0;
    4208:	10 86       	std	Z+8, r1	; 0x08
											TIMSK2=OFF;
    420a:	10 92 70 00 	sts	0x0070, r1	; 0x800070 <__TEXT_REGION_LENGTH__+0x7e0070>
											UART_byte=0;
    420e:	10 92 e5 06 	sts	0x06E5, r1	; 0x8006e5 <UART_byte>
											transmit=0;
    4212:	10 92 e6 06 	sts	0x06E6, r1	; 0x8006e6 <transmit>
    4216:	e4 c0       	rjmp	.+456    	; 0x43e0 <main+0x1d80>
										}
									}
								}
							}
						}
						else UART_byte++;
    4218:	80 91 e5 06 	lds	r24, 0x06E5	; 0x8006e5 <UART_byte>
    421c:	8f 5f       	subi	r24, 0xFF	; 255
    421e:	80 93 e5 06 	sts	0x06E5, r24	; 0x8006e5 <UART_byte>
    4222:	de c0       	rjmp	.+444    	; 0x43e0 <main+0x1d80>
						break;
					case 83:
						if(UART_adress<32){
    4224:	80 91 e4 06 	lds	r24, 0x06E4	; 0x8006e4 <UART_adress>
    4228:	80 32       	cpi	r24, 0x20	; 32
    422a:	08 f0       	brcs	.+2      	; 0x422e <main+0x1bce>
    422c:	54 c0       	rjmp	.+168    	; 0x42d6 <main+0x1c76>
							if(EMZ.error[UART_adress]==5){
    422e:	e0 91 e4 06 	lds	r30, 0x06E4	; 0x8006e4 <UART_adress>
    4232:	f0 e0       	ldi	r31, 0x00	; 0
    4234:	e0 58       	subi	r30, 0x80	; 128
    4236:	fe 4f       	sbci	r31, 0xFE	; 254
    4238:	80 81       	ld	r24, Z
    423a:	85 30       	cpi	r24, 0x05	; 5
    423c:	09 f0       	breq	.+2      	; 0x4240 <main+0x1be0>
    423e:	42 c0       	rjmp	.+132    	; 0x42c4 <main+0x1c64>
								EMZ_map=EMZ.adress[UART_adress*2];
    4240:	e0 91 e4 06 	lds	r30, 0x06E4	; 0x8006e4 <UART_adress>
    4244:	f0 e0       	ldi	r31, 0x00	; 0
    4246:	ee 0f       	add	r30, r30
    4248:	ff 1f       	adc	r31, r31
    424a:	e0 52       	subi	r30, 0x20	; 32
    424c:	fe 4f       	sbci	r31, 0xFE	; 254
    424e:	80 81       	ld	r24, Z
    4250:	80 93 ce 06 	sts	0x06CE, r24	; 0x8006ce <EMZ_map>
								if(EMZ.status[EMZ_map]!=DISCONNECT){
    4254:	e0 91 ce 06 	lds	r30, 0x06CE	; 0x8006ce <EMZ_map>
    4258:	f0 e0       	ldi	r31, 0x00	; 0
    425a:	e0 50       	subi	r30, 0x00	; 0
    425c:	ff 4f       	sbci	r31, 0xFF	; 255
    425e:	80 81       	ld	r24, Z
    4260:	84 34       	cpi	r24, 0x44	; 68
    4262:	71 f0       	breq	.+28     	; 0x4280 <main+0x1c20>
									EMZ.status[EMZ_map]=ERROR;
    4264:	e0 91 ce 06 	lds	r30, 0x06CE	; 0x8006ce <EMZ_map>
    4268:	f0 e0       	ldi	r31, 0x00	; 0
    426a:	e0 50       	subi	r30, 0x00	; 0
    426c:	ff 4f       	sbci	r31, 0xFF	; 255
    426e:	85 e4       	ldi	r24, 0x45	; 69
    4270:	80 83       	st	Z, r24
									EMZ.out[EMZ_map]=BLOCK;
    4272:	e0 91 ce 06 	lds	r30, 0x06CE	; 0x8006ce <EMZ_map>
    4276:	f0 e0       	ldi	r31, 0x00	; 0
    4278:	e0 5c       	subi	r30, 0xC0	; 192
    427a:	fe 4f       	sbci	r31, 0xFE	; 254
    427c:	82 e4       	ldi	r24, 0x42	; 66
    427e:	80 83       	st	Z, r24
								}
								EMZ_map=EMZ.adress[UART_adress*2+1];
    4280:	e0 91 e4 06 	lds	r30, 0x06E4	; 0x8006e4 <UART_adress>
    4284:	f0 e0       	ldi	r31, 0x00	; 0
    4286:	ee 0f       	add	r30, r30
    4288:	ff 1f       	adc	r31, r31
    428a:	ef 51       	subi	r30, 0x1F	; 31
    428c:	fe 4f       	sbci	r31, 0xFE	; 254
    428e:	80 81       	ld	r24, Z
    4290:	80 93 ce 06 	sts	0x06CE, r24	; 0x8006ce <EMZ_map>
								if(EMZ.status[EMZ_map]!=DISCONNECT){
    4294:	e0 91 ce 06 	lds	r30, 0x06CE	; 0x8006ce <EMZ_map>
    4298:	f0 e0       	ldi	r31, 0x00	; 0
    429a:	e0 50       	subi	r30, 0x00	; 0
    429c:	ff 4f       	sbci	r31, 0xFF	; 255
    429e:	80 81       	ld	r24, Z
    42a0:	84 34       	cpi	r24, 0x44	; 68
    42a2:	09 f4       	brne	.+2      	; 0x42a6 <main+0x1c46>
    42a4:	44 c0       	rjmp	.+136    	; 0x432e <main+0x1cce>
									EMZ.status[EMZ_map]=ERROR;
    42a6:	e0 91 ce 06 	lds	r30, 0x06CE	; 0x8006ce <EMZ_map>
    42aa:	f0 e0       	ldi	r31, 0x00	; 0
    42ac:	e0 50       	subi	r30, 0x00	; 0
    42ae:	ff 4f       	sbci	r31, 0xFF	; 255
    42b0:	85 e4       	ldi	r24, 0x45	; 69
    42b2:	80 83       	st	Z, r24
									EMZ.out[EMZ_map]=BLOCK;
    42b4:	e0 91 ce 06 	lds	r30, 0x06CE	; 0x8006ce <EMZ_map>
    42b8:	f0 e0       	ldi	r31, 0x00	; 0
    42ba:	e0 5c       	subi	r30, 0xC0	; 192
    42bc:	fe 4f       	sbci	r31, 0xFE	; 254
    42be:	82 e4       	ldi	r24, 0x42	; 66
    42c0:	80 83       	st	Z, r24
    42c2:	35 c0       	rjmp	.+106    	; 0x432e <main+0x1cce>
								}
							}
							else EMZ.error[UART_adress]++;
    42c4:	e0 91 e4 06 	lds	r30, 0x06E4	; 0x8006e4 <UART_adress>
    42c8:	f0 e0       	ldi	r31, 0x00	; 0
    42ca:	e0 58       	subi	r30, 0x80	; 128
    42cc:	fe 4f       	sbci	r31, 0xFE	; 254
    42ce:	80 81       	ld	r24, Z
    42d0:	8f 5f       	subi	r24, 0xFF	; 255
    42d2:	80 83       	st	Z, r24
    42d4:	2c c0       	rjmp	.+88     	; 0x432e <main+0x1cce>
						}
						else {
							if(sistem_mode){
    42d6:	80 91 69 02 	lds	r24, 0x0269	; 0x800269 <sistem_mode>
    42da:	88 23       	and	r24, r24
    42dc:	41 f1       	breq	.+80     	; 0x432e <main+0x1cce>
								if(DPNK_ERROR<5)DPNK_ERROR++;
    42de:	80 91 e0 06 	lds	r24, 0x06E0	; 0x8006e0 <DPNK_ERROR>
    42e2:	85 30       	cpi	r24, 0x05	; 5
    42e4:	30 f4       	brcc	.+12     	; 0x42f2 <main+0x1c92>
    42e6:	80 91 e0 06 	lds	r24, 0x06E0	; 0x8006e0 <DPNK_ERROR>
    42ea:	8f 5f       	subi	r24, 0xFF	; 255
    42ec:	80 93 e0 06 	sts	0x06E0, r24	; 0x8006e0 <DPNK_ERROR>
    42f0:	1e c0       	rjmp	.+60     	; 0x432e <main+0x1cce>
								else{
									if(page!=5&&page/10!=2&&page!=2&&page/10!=4&&page!=4&&page!=10){
    42f2:	80 91 e9 06 	lds	r24, 0x06E9	; 0x8006e9 <page>
    42f6:	85 30       	cpi	r24, 0x05	; 5
    42f8:	d1 f0       	breq	.+52     	; 0x432e <main+0x1cce>
    42fa:	80 91 e9 06 	lds	r24, 0x06E9	; 0x8006e9 <page>
    42fe:	84 51       	subi	r24, 0x14	; 20
    4300:	8a 30       	cpi	r24, 0x0A	; 10
    4302:	a8 f0       	brcs	.+42     	; 0x432e <main+0x1cce>
    4304:	80 91 e9 06 	lds	r24, 0x06E9	; 0x8006e9 <page>
    4308:	82 30       	cpi	r24, 0x02	; 2
    430a:	89 f0       	breq	.+34     	; 0x432e <main+0x1cce>
    430c:	80 91 e9 06 	lds	r24, 0x06E9	; 0x8006e9 <page>
    4310:	88 52       	subi	r24, 0x28	; 40
    4312:	8a 30       	cpi	r24, 0x0A	; 10
    4314:	60 f0       	brcs	.+24     	; 0x432e <main+0x1cce>
    4316:	80 91 e9 06 	lds	r24, 0x06E9	; 0x8006e9 <page>
    431a:	84 30       	cpi	r24, 0x04	; 4
    431c:	41 f0       	breq	.+16     	; 0x432e <main+0x1cce>
    431e:	80 91 e9 06 	lds	r24, 0x06E9	; 0x8006e9 <page>
    4322:	8a 30       	cpi	r24, 0x0A	; 10
    4324:	21 f0       	breq	.+8      	; 0x432e <main+0x1cce>
										page=5;
    4326:	30 92 e9 06 	sts	0x06E9, r3	; 0x8006e9 <page>
										update=1;
    432a:	40 92 e8 06 	sts	0x06E8, r4	; 0x8006e8 <update>
									}
								}
							}
						}
						UART_byte=0;
    432e:	10 92 e5 06 	sts	0x06E5, r1	; 0x8006e5 <UART_byte>
						transmit=0;
    4332:	10 92 e6 06 	sts	0x06E6, r1	; 0x8006e6 <transmit>
						break;
    4336:	54 c0       	rjmp	.+168    	; 0x43e0 <main+0x1d80>
						default:;
				}
			}
			else{
				if(UART_adress==32)UART_adress=64;
    4338:	80 91 e4 06 	lds	r24, 0x06E4	; 0x8006e4 <UART_adress>
    433c:	80 32       	cpi	r24, 0x20	; 32
    433e:	21 f4       	brne	.+8      	; 0x4348 <main+0x1ce8>
    4340:	80 e4       	ldi	r24, 0x40	; 64
    4342:	80 93 e4 06 	sts	0x06E4, r24	; 0x8006e4 <UART_adress>
    4346:	0c c0       	rjmp	.+24     	; 0x4360 <main+0x1d00>
				else if(UART_adress==64)UART_adress=0;
    4348:	80 91 e4 06 	lds	r24, 0x06E4	; 0x8006e4 <UART_adress>
    434c:	80 34       	cpi	r24, 0x40	; 64
    434e:	19 f4       	brne	.+6      	; 0x4356 <main+0x1cf6>
    4350:	10 92 e4 06 	sts	0x06E4, r1	; 0x8006e4 <UART_adress>
    4354:	05 c0       	rjmp	.+10     	; 0x4360 <main+0x1d00>
				else UART_adress++;
    4356:	80 91 e4 06 	lds	r24, 0x06E4	; 0x8006e4 <UART_adress>
    435a:	8f 5f       	subi	r24, 0xFF	; 255
    435c:	80 93 e4 06 	sts	0x06E4, r24	; 0x8006e4 <UART_adress>
				if(UART_adress<32){
    4360:	80 91 e4 06 	lds	r24, 0x06E4	; 0x8006e4 <UART_adress>
    4364:	80 32       	cpi	r24, 0x20	; 32
    4366:	50 f5       	brcc	.+84     	; 0x43bc <main+0x1d5c>
					EMZ_map=EMZ.adress[UART_adress*2];
    4368:	e0 91 e4 06 	lds	r30, 0x06E4	; 0x8006e4 <UART_adress>
    436c:	f0 e0       	ldi	r31, 0x00	; 0
    436e:	ee 0f       	add	r30, r30
    4370:	ff 1f       	adc	r31, r31
    4372:	e0 52       	subi	r30, 0x20	; 32
    4374:	fe 4f       	sbci	r31, 0xFE	; 254
    4376:	80 81       	ld	r24, Z
    4378:	80 93 ce 06 	sts	0x06CE, r24	; 0x8006ce <EMZ_map>
					if(EMZ.status[EMZ_map]!=DISCONNECT)transmit=1;
    437c:	e0 91 ce 06 	lds	r30, 0x06CE	; 0x8006ce <EMZ_map>
    4380:	f0 e0       	ldi	r31, 0x00	; 0
    4382:	e0 50       	subi	r30, 0x00	; 0
    4384:	ff 4f       	sbci	r31, 0xFF	; 255
    4386:	80 81       	ld	r24, Z
    4388:	84 34       	cpi	r24, 0x44	; 68
    438a:	19 f0       	breq	.+6      	; 0x4392 <main+0x1d32>
    438c:	40 92 e6 06 	sts	0x06E6, r4	; 0x8006e6 <transmit>
    4390:	27 c0       	rjmp	.+78     	; 0x43e0 <main+0x1d80>
					else {
						EMZ_map=EMZ.adress[UART_adress*2+1];
    4392:	e0 91 e4 06 	lds	r30, 0x06E4	; 0x8006e4 <UART_adress>
    4396:	f0 e0       	ldi	r31, 0x00	; 0
    4398:	ee 0f       	add	r30, r30
    439a:	ff 1f       	adc	r31, r31
    439c:	ef 51       	subi	r30, 0x1F	; 31
    439e:	fe 4f       	sbci	r31, 0xFE	; 254
    43a0:	80 81       	ld	r24, Z
    43a2:	80 93 ce 06 	sts	0x06CE, r24	; 0x8006ce <EMZ_map>
						if(EMZ.status[EMZ_map]!=DISCONNECT)transmit=1;
    43a6:	e0 91 ce 06 	lds	r30, 0x06CE	; 0x8006ce <EMZ_map>
    43aa:	f0 e0       	ldi	r31, 0x00	; 0
    43ac:	e0 50       	subi	r30, 0x00	; 0
    43ae:	ff 4f       	sbci	r31, 0xFF	; 255
    43b0:	80 81       	ld	r24, Z
    43b2:	84 34       	cpi	r24, 0x44	; 68
    43b4:	a9 f0       	breq	.+42     	; 0x43e0 <main+0x1d80>
    43b6:	40 92 e6 06 	sts	0x06E6, r4	; 0x8006e6 <transmit>
    43ba:	12 c0       	rjmp	.+36     	; 0x43e0 <main+0x1d80>
					}
				}
				else {
					DPNK_BLOCK=OPEN;
    43bc:	8f e4       	ldi	r24, 0x4F	; 79
    43be:	80 93 65 02 	sts	0x0265, r24	; 0x800265 <DPNK_BLOCK>
    43c2:	e0 e0       	ldi	r30, 0x00	; 0
    43c4:	f1 e0       	ldi	r31, 0x01	; 1
    43c6:	20 e4       	ldi	r18, 0x40	; 64
    43c8:	31 e0       	ldi	r19, 0x01	; 1
					for(uint8_t i=0;i<64;i++){
						if(EMZ.status[i]==OPEN)DPNK_BLOCK=BLOCK;
    43ca:	92 e4       	ldi	r25, 0x42	; 66
    43cc:	81 91       	ld	r24, Z+
    43ce:	8f 34       	cpi	r24, 0x4F	; 79
    43d0:	11 f4       	brne	.+4      	; 0x43d6 <main+0x1d76>
    43d2:	90 93 65 02 	sts	0x0265, r25	; 0x800265 <DPNK_BLOCK>
						if(EMZ.status[EMZ_map]!=DISCONNECT)transmit=1;
					}
				}
				else {
					DPNK_BLOCK=OPEN;
					for(uint8_t i=0;i<64;i++){
    43d6:	2e 17       	cp	r18, r30
    43d8:	3f 07       	cpc	r19, r31
    43da:	c1 f7       	brne	.-16     	; 0x43cc <main+0x1d6c>
						if(EMZ.status[i]==OPEN)DPNK_BLOCK=BLOCK;
					}
					transmit=1;
    43dc:	40 92 e6 06 	sts	0x06E6, r4	; 0x8006e6 <transmit>
				}
			}

		}
		//чтение кнопок
		if(!BUT_FIX){
    43e0:	80 91 ea 06 	lds	r24, 0x06EA	; 0x8006ea <BUT_FIX>
    43e4:	81 11       	cpse	r24, r1
    43e6:	15 c0       	rjmp	.+42     	; 0x4412 <main+0x1db2>
			BUTTON=scan_buttons();
    43e8:	0e 94 ee 06 	call	0xddc	; 0xddc <scan_buttons>
    43ec:	80 93 68 02 	sts	0x0268, r24	; 0x800268 <BUTTON>
			PORTB|=0b00011100;
    43f0:	85 b1       	in	r24, 0x05	; 5
    43f2:	8c 61       	ori	r24, 0x1C	; 28
    43f4:	85 b9       	out	0x05, r24	; 5
			if(BUTTON<15){
    43f6:	80 91 68 02 	lds	r24, 0x0268	; 0x800268 <BUTTON>
    43fa:	8f 30       	cpi	r24, 0x0F	; 15
    43fc:	38 f5       	brcc	.+78     	; 0x444c <main+0x1dec>
				PORTC|=(1<<PORTC0);
    43fe:	40 9a       	sbi	0x08, 0	; 8
				BUT_FIX=1;
    4400:	40 92 ea 06 	sts	0x06EA, r4	; 0x8006ea <BUT_FIX>
				beep_time=20;
    4404:	84 e1       	ldi	r24, 0x14	; 20
    4406:	80 93 e7 06 	sts	0x06E7, r24	; 0x8006e7 <beep_time>
				lcd_LED(ON);
    440a:	85 2d       	mov	r24, r5
    440c:	0e 94 d1 05 	call	0xba2	; 0xba2 <lcd_LED>
    4410:	1d c0       	rjmp	.+58     	; 0x444c <main+0x1dec>
				//timer=2;
				//TIMSK0=ON;
			}
		}
		else if(BUT_FIX>1){
    4412:	80 91 ea 06 	lds	r24, 0x06EA	; 0x8006ea <BUT_FIX>
    4416:	82 30       	cpi	r24, 0x02	; 2
    4418:	c8 f0       	brcs	.+50     	; 0x444c <main+0x1dec>
			if(!beep_time){
    441a:	80 91 e7 06 	lds	r24, 0x06E7	; 0x8006e7 <beep_time>
    441e:	81 11       	cpse	r24, r1
    4420:	15 c0       	rjmp	.+42     	; 0x444c <main+0x1dec>
				if(scan_buttons()==15)BUT_FIX=(BUT_FIX+1)%20;
    4422:	0e 94 ee 06 	call	0xddc	; 0xddc <scan_buttons>
    4426:	8f 30       	cpi	r24, 0x0F	; 15
    4428:	59 f4       	brne	.+22     	; 0x4440 <main+0x1de0>
    442a:	80 91 ea 06 	lds	r24, 0x06EA	; 0x8006ea <BUT_FIX>
    442e:	90 e0       	ldi	r25, 0x00	; 0
    4430:	01 96       	adiw	r24, 0x01	; 1
    4432:	64 e1       	ldi	r22, 0x14	; 20
    4434:	70 e0       	ldi	r23, 0x00	; 0
    4436:	0e 94 96 22 	call	0x452c	; 0x452c <__divmodhi4>
    443a:	80 93 ea 06 	sts	0x06EA, r24	; 0x8006ea <BUT_FIX>
    443e:	03 c0       	rjmp	.+6      	; 0x4446 <main+0x1de6>
				else BUT_FIX=2;
    4440:	82 e0       	ldi	r24, 0x02	; 2
    4442:	80 93 ea 06 	sts	0x06EA, r24	; 0x8006ea <BUT_FIX>
				PORTB|=0b00011100;
    4446:	85 b1       	in	r24, 0x05	; 5
    4448:	8c 61       	ori	r24, 0x1C	; 28
    444a:	85 b9       	out	0x05, r24	; 5
			}
		}
		//переключение страниц
		if(led_use==1){
    444c:	80 91 cc 06 	lds	r24, 0x06CC	; 0x8006cc <__data_end>
    4450:	81 30       	cpi	r24, 0x01	; 1
    4452:	51 f4       	brne	.+20     	; 0x4468 <main+0x1e08>
			lcd_LED(OFF);
    4454:	80 e0       	ldi	r24, 0x00	; 0
    4456:	0e 94 d1 05 	call	0xba2	; 0xba2 <lcd_LED>
			page=0;
    445a:	10 92 e9 06 	sts	0x06E9, r1	; 0x8006e9 <page>
			update=1;
    445e:	40 92 e8 06 	sts	0x06E8, r4	; 0x8006e8 <update>
			led_use=2;
    4462:	82 e0       	ldi	r24, 0x02	; 2
    4464:	80 93 cc 06 	sts	0x06CC, r24	; 0x8006cc <__data_end>
		}
		switch(page){
    4468:	e0 91 e9 06 	lds	r30, 0x06E9	; 0x8006e9 <page>
    446c:	8e 2f       	mov	r24, r30
    446e:	90 e0       	ldi	r25, 0x00	; 0
    4470:	8f 32       	cpi	r24, 0x2F	; 47
    4472:	91 05       	cpc	r25, r1
    4474:	10 f0       	brcs	.+4      	; 0x447a <main+0x1e1a>
    4476:	0c 94 fa 13 	jmp	0x27f4	; 0x27f4 <main+0x194>
    447a:	fc 01       	movw	r30, r24
    447c:	e8 53       	subi	r30, 0x38	; 56
    447e:	ff 4f       	sbci	r31, 0xFF	; 255
    4480:	0c 94 aa 22 	jmp	0x4554	; 0x4554 <__tablejump2__>
			case 0:Set_MAIN();break;
    4484:	0e 94 d6 07 	call	0xfac	; 0xfac <Set_MAIN>
    4488:	0c 94 e7 13 	jmp	0x27ce	; 0x27ce <main+0x16e>
			case 1:Set_EMZ();break;
    448c:	0e 94 37 08 	call	0x106e	; 0x106e <Set_EMZ>
    4490:	0c 94 e7 13 	jmp	0x27ce	; 0x27ce <main+0x16e>
			case 2:Set_password();break;
    4494:	0e 94 45 0a 	call	0x148a	; 0x148a <Set_password>
    4498:	0c 94 e7 13 	jmp	0x27ce	; 0x27ce <main+0x16e>
			case 22:Error_password();break;
    449c:	0e 94 d7 0b 	call	0x17ae	; 0x17ae <Error_password>
    44a0:	0c 94 e7 13 	jmp	0x27ce	; 0x27ce <main+0x16e>
			case 21:Reset_pass();break;
    44a4:	0e 94 02 0c 	call	0x1804	; 0x1804 <Reset_pass>
    44a8:	0c 94 e7 13 	jmp	0x27ce	; 0x27ce <main+0x16e>
			case 3:EMZ_info();break;
    44ac:	0e 94 c3 08 	call	0x1186	; 0x1186 <EMZ_info>
    44b0:	0c 94 e7 13 	jmp	0x27ce	; 0x27ce <main+0x16e>
			case 4:Seting_menu();break;
    44b4:	0e 94 27 0c 	call	0x184e	; 0x184e <Seting_menu>
    44b8:	0c 94 e7 13 	jmp	0x27ce	; 0x27ce <main+0x16e>
			case 41:Set_password_admin();break;
    44bc:	0e 94 0a 0e 	call	0x1c14	; 0x1c14 <Set_password_admin>
    44c0:	0c 94 e7 13 	jmp	0x27ce	; 0x27ce <main+0x16e>
			case 42:Set_password_user();break;
    44c4:	0e 94 c2 0e 	call	0x1d84	; 0x1d84 <Set_password_user>
    44c8:	0c 94 e7 13 	jmp	0x27ce	; 0x27ce <main+0x16e>
			case 43:Activate_EMZ();break;
    44cc:	0e 94 7a 0f 	call	0x1ef4	; 0x1ef4 <Activate_EMZ>
    44d0:	0c 94 e7 13 	jmp	0x27ce	; 0x27ce <main+0x16e>
			case 44:Adresing_EMZ();break;
    44d4:	0e 94 51 10 	call	0x20a2	; 0x20a2 <Adresing_EMZ>
    44d8:	0c 94 e7 13 	jmp	0x27ce	; 0x27ce <main+0x16e>
			case 45:Adresing_EMZ_2();break;
    44dc:	0e 94 36 11 	call	0x226c	; 0x226c <Adresing_EMZ_2>
    44e0:	0c 94 e7 13 	jmp	0x27ce	; 0x27ce <main+0x16e>
			case 46:Reset_seting();break;
    44e4:	0e 94 10 0d 	call	0x1a20	; 0x1a20 <Reset_seting>
    44e8:	0c 94 e7 13 	jmp	0x27ce	; 0x27ce <main+0x16e>
			case 5:Error_wireles();break;
    44ec:	0e 94 45 12 	call	0x248a	; 0x248a <Error_wireles>
    44f0:	0c 94 e7 13 	jmp	0x27ce	; 0x27ce <main+0x16e>
			case 6:Set_sistem_mode();break;
    44f4:	0e 94 76 0b 	call	0x16ec	; 0x16ec <Set_sistem_mode>
    44f8:	0c 94 e7 13 	jmp	0x27ce	; 0x27ce <main+0x16e>
			case 7:DPNK_DISCONNECT();break;
    44fc:	0e 94 e2 0d 	call	0x1bc4	; 0x1bc4 <DPNK_DISCONNECT>
    4500:	0c 94 e7 13 	jmp	0x27ce	; 0x27ce <main+0x16e>
			case 10:SetROJER();break;
    4504:	0e 94 94 07 	call	0xf28	; 0xf28 <SetROJER>
    4508:	0c 94 e7 13 	jmp	0x27ce	; 0x27ce <main+0x16e>
    450c:	a0 e0       	ldi	r26, 0x00	; 0
    450e:	b1 e0       	ldi	r27, 0x01	; 1
    4510:	20 ea       	ldi	r18, 0xA0	; 160
    4512:	31 e0       	ldi	r19, 0x01	; 1
				else if(page==5){
					page=0;
					update=1;
				}
				if(((package[74]<<4)|package[75])==STOP_BYTE){
					CRC_IN=0x07;
    4514:	83 e0       	ldi	r24, 0x03	; 3
    4516:	90 e0       	ldi	r25, 0x00	; 0
    4518:	0c 94 78 14 	jmp	0x28f0	; 0x28f0 <main+0x290>
    451c:	a0 e2       	ldi	r26, 0x20	; 32
    451e:	b1 e0       	ldi	r27, 0x01	; 1
    4520:	20 ec       	ldi	r18, 0xC0	; 192
    4522:	31 e0       	ldi	r19, 0x01	; 1
    4524:	83 e0       	ldi	r24, 0x03	; 3
    4526:	90 e0       	ldi	r25, 0x00	; 0
    4528:	0c 94 e6 14 	jmp	0x29cc	; 0x29cc <main+0x36c>

0000452c <__divmodhi4>:
    452c:	97 fb       	bst	r25, 7
    452e:	07 2e       	mov	r0, r23
    4530:	16 f4       	brtc	.+4      	; 0x4536 <__divmodhi4+0xa>
    4532:	00 94       	com	r0
    4534:	07 d0       	rcall	.+14     	; 0x4544 <__divmodhi4_neg1>
    4536:	77 fd       	sbrc	r23, 7
    4538:	09 d0       	rcall	.+18     	; 0x454c <__divmodhi4_neg2>
    453a:	0e 94 b0 22 	call	0x4560	; 0x4560 <__udivmodhi4>
    453e:	07 fc       	sbrc	r0, 7
    4540:	05 d0       	rcall	.+10     	; 0x454c <__divmodhi4_neg2>
    4542:	3e f4       	brtc	.+14     	; 0x4552 <__divmodhi4_exit>

00004544 <__divmodhi4_neg1>:
    4544:	90 95       	com	r25
    4546:	81 95       	neg	r24
    4548:	9f 4f       	sbci	r25, 0xFF	; 255
    454a:	08 95       	ret

0000454c <__divmodhi4_neg2>:
    454c:	70 95       	com	r23
    454e:	61 95       	neg	r22
    4550:	7f 4f       	sbci	r23, 0xFF	; 255

00004552 <__divmodhi4_exit>:
    4552:	08 95       	ret

00004554 <__tablejump2__>:
    4554:	ee 0f       	add	r30, r30
    4556:	ff 1f       	adc	r31, r31
    4558:	05 90       	lpm	r0, Z+
    455a:	f4 91       	lpm	r31, Z
    455c:	e0 2d       	mov	r30, r0
    455e:	09 94       	ijmp

00004560 <__udivmodhi4>:
    4560:	aa 1b       	sub	r26, r26
    4562:	bb 1b       	sub	r27, r27
    4564:	51 e1       	ldi	r21, 0x11	; 17
    4566:	07 c0       	rjmp	.+14     	; 0x4576 <__udivmodhi4_ep>

00004568 <__udivmodhi4_loop>:
    4568:	aa 1f       	adc	r26, r26
    456a:	bb 1f       	adc	r27, r27
    456c:	a6 17       	cp	r26, r22
    456e:	b7 07       	cpc	r27, r23
    4570:	10 f0       	brcs	.+4      	; 0x4576 <__udivmodhi4_ep>
    4572:	a6 1b       	sub	r26, r22
    4574:	b7 0b       	sbc	r27, r23

00004576 <__udivmodhi4_ep>:
    4576:	88 1f       	adc	r24, r24
    4578:	99 1f       	adc	r25, r25
    457a:	5a 95       	dec	r21
    457c:	a9 f7       	brne	.-22     	; 0x4568 <__udivmodhi4_loop>
    457e:	80 95       	com	r24
    4580:	90 95       	com	r25
    4582:	bc 01       	movw	r22, r24
    4584:	cd 01       	movw	r24, r26
    4586:	08 95       	ret

00004588 <_exit>:
    4588:	f8 94       	cli

0000458a <__stop_program>:
    458a:	ff cf       	rjmp	.-2      	; 0x458a <__stop_program>
